(dp1
Vrefus
p2
(I2
I62339
tp3
sVnurseri
p4
(I1
I54567
tp5
sV1,800
p6
(I1
I62279
tp7
sVdemand
p8
(I8
I47969
tp9
sVfour
p10
(I15
I8158
tp11
sVprotest
p12
(I2
I32030
tp13
sVoff-shor
p14
(I1
I57353
tp15
sVtomaqu
p16
(I1
I62843
tp17
sV1.12
p18
(I1
I51263
tp19
sV9,000
p20
(I1
I50529
tp21
sV161.5
p22
(I1
I54487
tp23
sVmicrobilt
p24
(I1
I49978
tp25
sV1.18
p26
(I2
I32804
tp27
sV1.19
p28
(I2
I59730
tp29
sV344
p30
(I1
I63811
tp31
sVdeviat
p32
(I1
I55478
tp33
sVunder
p34
(I23
I13373
tp35
sV7.69
p36
(I1
I51243
tp37
sVfast-grow
p38
(I1
I23286
tp39
sVworth
p40
(I6
I19854
tp41
sVside-product
p42
(I1
I66765
tp43
sVmerchant
p44
(I1
I39155
tp45
sVanti-dump
p46
(I1
I9499
tp47
sV45.8
p48
(I1
I32853
tp49
sVeveri
p50
(I3
I63093
tp51
sVrisk
p52
(I1
I65271
tp53
sVsaskatchewan
p54
(I1
I41335
tp55
sVvoid
p56
(I1
I57679
tp57
sV15/april
p58
(I1
I24197
tp59
sVvoic
p60
(I1
I25541
tp61
sV6,506,792
p62
(I1
I33088
tp63
sV12,427,000
p64
(I1
I8186
tp65
sVgovern
p66
(I27
I26995
tp67
sVaffect
p68
(I3
I39619
tp69
sVwick
p70
(I1
I52594
tp71
sV157,100
p72
(I1
I57016
tp73
sV229/230
p74
(I1
I60322
tp75
sVwednesday
p76
(I3
I17126
tp77
sV1,841,000
p78
(I1
I45415
tp79
sV11.5
p80
(I2
I59691
tp81
sVhoy
p82
(I1
I39861
tp83
sV298
p84
(I1
I53629
tp85
sV8,804,397
p86
(I1
I63481
tp87
sVartist
p88
(I1
I67653
tp89
sVlancast
p90
(I1
I63033
tp91
sVcharter
p92
(I1
I57867
tp93
sVinnopac
p94
(I1
I62130
tp95
sVbelow-cost
p96
(I1
I9822
tp97
sVfranc
p98
(I7
I28882
tp99
sVmiller
p100
(I1
I53124
tp101
sVdirect
p102
(I2
I51399
tp103
sVsunbelt
p104
(I1
I54557
tp105
sVsecond
p106
(I3
I57738
tp107
sVstreet
p108
(I1
I14719
tp109
sVsooth
p110
(I1
I60786
tp111
sVaggreg
p112
(I1
I19584
tp113
sV279
p114
(I1
I20579
tp115
sVchem
p116
(I1
I54073
tp117
sVmid-1988
p118
(I1
I48617
tp119
sVeven
p120
(I4
I4368
tp121
sVaim
p122
(I3
I39232
tp123
sV329.0
p124
(I1
I61686
tp125
sVamus
p126
(I1
I36244
tp127
sV129,250
p128
(I1
I56640
tp129
sVnear
p130
(I4
I55781
tp131
sVdecre
p132
(I3
I29645
tp133
sVspokesman
p134
(I9
I15367
tp135
sV390,179
p136
(I1
I43973
tp137
sVconduct
p138
(I2
I45094
tp139
sVnew
p140
(I65
I1155
tp141
sVnet
p142
(I33
I223
tp143
sVbuy-sid
p144
(I1
I55136
tp145
sVdisney
p146
(I1
I34740
tp147
sVtold
p148
(I19
I26478
tp149
sV201,660
p150
(I1
I50657
tp151
sVspecialist
p152
(I1
I38868
tp153
sVtire'
p154
(I1
I60686
tp155
sV2447
p156
(I1
I40235
tp157
sV2444
p158
(I1
I40225
tp159
sVnever
p160
(I1
I36014
tp161
sVhere
p162
(I3
I44866
tp163
sV27p
p164
(I1
I38003
tp165
sVmet
p166
(I2
I47979
tp167
sVpratt
p168
(I1
I22815
tp169
sVchina
p170
(I23
I42494
tp171
sV103
p172
(I2
I34999
tp173
sV100
p174
(I10
I10205
tp175
sV105
p176
(I2
I22660
tp177
sVreadmit
p178
(I1
I56055
tp179
sVforum
p180
(I1
I67444
tp181
sVtaper
p182
(I1
I67723
tp183
sVauction
p184
(I2
I54743
tp185
sVmilitari
p186
(I2
I27266
tp187
sV1,865,000
p188
(I1
I33664
tp189
sVderegul
p190
(I2
I29098
tp191
sV3,321,000
p192
(I1
I50066
tp193
sV704,803
p194
(I1
I42018
tp195
sVvogu
p196
(I1
I39165
tp197
sVrecor
p198
(I1
I52203
tp199
sVpermit
p200
(I1
I48754
tp201
sVstudi
p202
(I5
I12931
tp203
sVdiplomat
p204
(I3
I49812
tp205
sVcounti
p206
(I2
I56455
tp207
sVcommemor
p208
(I1
I64544
tp209
sVcampaign
p210
(I1
I28814
tp211
sVcompany'
p212
(I1
I53530
tp213
sVnewspap
p214
(I1
I49055
tp215
sVreagan
p216
(I7
I57314
tp217
sVbrought
p218
(I1
I49900
tp219
sVshun
p220
(I1
I63961
tp221
sVpound
p222
(I8
I35835
tp223
sV155,000
p224
(I1
I42709
tp225
sVsterl
p226
(I1
I38331
tp227
sV9p
p228
(I1
I37934
tp229
sVtotal
p230
(I32
I3991
tp231
sVunit
p232
(I35
I5157
tp233
sVhighli
p234
(I2
I15168
tp235
sVdescrib
p236
(I1
I51592
tp237
sVwould
p238
(I60
I2953
tp239
sVchampney
p240
(I1
I66066
tp241
sVinjunct
p242
(I2
I56465
tp243
sVprescript
p244
(I1
I61844
tp245
sVthree-for-two
p246
(I3
I25172
tp247
sV301,000
p248
(I1
I33684
tp249
sVconcret
p250
(I1
I61486
tp251
sVcall
p252
(I9
I36423
tp253
sVasset
p254
(I7
I29702
tp255
sVrecommend
p256
(I5
I40859
tp257
sVstrike
p258
(I5
I31973
tp259
sVindiana
p260
(I2
I58163
tp261
sV220,000
p262
(I1
I64169
tp263
sVtype
p264
(I1
I49713
tp265
sVuntil
p266
(I9
I4770
tp267
sVmoir
p268
(I1
I39550
tp269
sV99,706
p270
(I1
I65102
tp271
sVremark
p272
(I1
I59494
tp273
sVrelat
p274
(I7
I35806
tp275
sVtrenwick
p276
(I1
I33481
tp277
sVaward
p278
(I1
I42630
tp279
sVhurt
p280
(I3
I51312
tp281
sV99
p282
(I3
I43720
tp283
sV98
p284
(I1
I49415
tp285
sVimbal
p286
(I1
I60105
tp287
sV8,146,000
p288
(I1
I59216
tp289
sVadjourn
p290
(I1
I40888
tp291
sV90
p292
(I4
I50370
tp293
sVhold
p294
(I22
I11831
tp295
sV95
p296
(I2
I49405
tp297
sV94
p298
(I1
I63332
tp299
sVmust
p300
(I8
I29747
tp301
sV1991
p302
(I1
I50519
tp303
sVaccid
p304
(I2
I37837
tp305
sVspringer
p306
(I1
I59621
tp307
sV1992
p308
(I1
I48685
tp309
sVjoin
p310
(I2
I28683
tp311
sVwork
p312
(I8
I34770
tp313
sV29.50
p314
(I1
I51467
tp315
sVlisbon'
p316
(I1
I56143
tp317
sVcallicoon
p318
(I1
I50637
tp319
sVmy
p320
(I3
I49559
tp321
sV98.2
p322
(I1
I62179
tp323
sVcarmel
p324
(I1
I32756
tp325
sVoverrid
p326
(I1
I41852
tp327
sVdefer
p328
(I2
I48476
tp329
sV600
p330
(I1
I64515
tp331
sVclimat
p332
(I1
I53678
tp333
sVgive
p334
(I8
I15976
tp335
sV53.2
p336
(I1
I46554
tp337
sVhousehold
p338
(I1
I40547
tp339
sVdigit
p340
(I1
I41969
tp341
sVindic
p342
(I4
I45737
tp343
sVcautiou
p344
(I1
I46631
tp345
sV10,000
p346
(I1
I64367
tp347
sVunavail
p348
(I1
I53203
tp349
sV22,000
p350
(I2
I28295
tp351
sVrig
p352
(I1
I57461
tp353
sV2.2
p354
(I1
I46918
tp355
sVdavid
p356
(I3
I37139
tp357
sVattract
p358
(I5
I38935
tp359
sV51.5
p360
(I1
I8251
tp361
sV51.7
p362
(I1
I54626
tp363
sVend
p364
(I29
I9369
tp365
sV60,000
p366
(I1
I42738
tp367
sVquot
p368
(I2
I43591
tp369
sVordinari
p370
(I1
I58556
tp371
sVclassifi
p372
(I1
I29936
tp373
sVsaid-
p374
(I1
I67474
tp375
sVhow
p376
(I3
I37092
tp377
sV4.15
p378
(I1
I67015
tp379
sVrecoveri
p380
(I2
I57590
tp381
sV25,800
p382
(I1
I57006
tp383
sVenquiri
p384
(I1
I9544
tp385
sVdisappoint
p386
(I2
I26401
tp387
sVnegoti
p388
(I6
I2329
tp389
sV501,000
p390
(I1
I8090
tp391
sV34,700
p392
(I1
I65727
tp393
sVrise
p394
(I37
I40354
tp395
sVrecogn
p396
(I1
I62558
tp397
sVelizabeth
p398
(I1
I66136
tp399
sVchines
p400
(I1
I59335
tp401
sVearlier
p402
(I7
I3366
tp403
sVstainless
p404
(I1
I62269
tp405
sVlab
p406
(I1
I54152
tp407
sVbefor
p408
(I11
I37014
tp409
sVwrong
p410
(I1
I57521
tp411
sV45.5
p412
(I1
I59759
tp413
sVlaw
p414
(I1
I48861
tp415
sVaverag
p416
(I10
I35965
tp417
sVdilut
p418
(I3
I60511
tp419
sVkarachi
p420
(I1
I66735
tp421
sVjwc
p422
(I1
I22059
tp423
sVattempt
p424
(I3
I17635
tp425
sVthird
p426
(I10
I21787
tp427
sVsingapor
p428
(I1
I64209
tp429
sVparkval
p430
(I1
I33902
tp431
sVnike
p432
(I1
I59671
tp433
sVconfeder
p434
(I1
I48046
tp435
sV3,686,000
p436
(I1
I54398
tp437
sVrevolv
p438
(I1
I44545
tp439
sVexclud
p440
(I14
I27847
tp441
sVreceiv
p442
(I7
I18965
tp443
sVfungu
p444
(I1
I39813
tp445
sVmaintain
p446
(I5
I43403
tp447
sVenviron
p448
(I3
I57383
tp449
sVreloc
p450
(I1
I33306
tp451
sVenter
p452
(I3
I31046
tp453
sVgreec
p454
(I1
I29058
tp455
sV516
p456
(I1
I57767
tp457
sVorder
p458
(I9
I55517
tp459
sVbackdrop
p460
(I1
I54998
tp461
sVoper
p462
(I62
I5821
tp463
sVtelecom
p464
(I1
I43256
tp465
sVconsent
p466
(I1
I40927
tp467
sVoffici
p468
(I30
I8851
tp469
sVpayabl
p470
(I2
I33790
tp471
sVbecaus
p472
(I22
I15676
tp473
sV1-15
p474
(I1
I26149
tp475
sV12.2
p476
(I1
I5946
tp477
sV6.5
p478
(I1
I53857
tp479
sV7,054,709
p480
(I1
I67763
tp481
sVlondon
p482
(I8
I23826
tp483
sV12.6
p484
(I1
I743
tp485
sV12.5
p486
(I3
I34100
tp487
sV15.75
p488
(I1
I48409
tp489
sVjapan
p490
(I28
I52555
tp491
sV12.8
p492
(I1
I54892
tp493
sVmayor
p494
(I1
I51047
tp495
sVfir
p496
(I1
I28323
tp497
sV10.0
p498
(I1
I59206
tp499
sV10.3
p500
(I1
I57066
tp501
sV10.5
p502
(I1
I67055
tp503
sV10.7
p504
(I1
I58486
tp505
sV10.6
p506
(I1
I53777
tp507
sV10.9
p508
(I1
I63651
tp509
sVfix
p510
(I1
I30171
tp511
sV7.25
p512
(I1
I54842
tp513
sV,
(I925
I1523
tp514
sVcrew
p515
(I1
I37072
tp516
sVbetter
p517
(I3
I65421
tp518
sVcarri
p519
(I4
I49347
tp520
sVoffic
p521
(I7
I17182
tp522
sV404
p523
(I1
I53599
tp524
sV16.1
p525
(I1
I52390
tp526
sVonc
p527
(I2
I49645
tp528
sVshear
p529
(I1
I62110
tp530
sVthen
p531
(I3
I34971
tp532
sVthem
p533
(I5
I10924
tp534
sVtourist
p535
(I1
I58685
tp536
sVpbt
p537
(I1
I54222
tp538
sVpress
p539
(I1
I64258
tp540
sVsafe
p541
(I1
I49683
tp542
sV2.4
p543
(I1
I57709
tp544
sVbreak
p545
(I1
I26864
tp546
sVband
p547
(I1
I56956
tp548
sVpromis
p549
(I1
I56670
tp550
sVthey
p551
(I37
I4030
tp552
sVbank
p553
(I62
I20946
tp554
sV1.01
p555
(I1
I42933
tp556
sVchoic
p557
(I1
I25814
tp558
sV1.03
p559
(I1
I28843
tp560
sVleaner
p561
(I1
I25663
tp562
sV1.05
p563
(I1
I26536
tp564
sVmeat
p565
(I2
I25673
tp566
sVopec
p567
(I1
I46190
tp568
sVwilling
p569
(I1
I62408
tp570
sVl
(I1
I34358
tp571
sVbonu
p572
(I1
I42465
tp573
sVasia
p574
(I1
I64001
tp575
sVherald
p576
(I1
I37249
tp577
sVsidi
p578
(I1
I41999
tp579
sVfollow-up
p580
(I1
I61496
tp581
sV114.8
p582
(I1
I58015
tp583
sVeach
p584
(I9
I19037
tp585
sVconsumpt
p586
(I1
I66565
tp587
sVwent
p588
(I2
I50225
tp589
sVeuropean
p590
(I8
I9593
tp591
sVoblig
p592
(I4
I30853
tp593
sVside
p594
(I2
I42165
tp595
sVhirohito
p596
(I1
I64574
tp597
sVbond
p598
(I8
I30872
tp599
sVprohibit
p600
(I1
I64278
tp601
sVresum
p602
(I2
I8349
tp603
sVspanish
p604
(I1
I67265
tp605
sVcmb
p606
(I1
I64703
tp607
sVhigh-dens
p608
(I1
I41959
tp609
sVoppos
p610
(I2
I55967
tp611
sVmdr
p612
(I1
I48841
tp613
sV79.1
p614
(I1
I27958
tp615
sVcommiss
p616
(I10
I9622
tp617
sVmdt
p618
(I1
I32736
tp619
sV120,000
p620
(I1
I64021
tp621
sVdepress
p622
(I3
I39755
tp623
sVevid
p624
(I1
I42175
tp625
sVnewli
p626
(I1
I63451
tp627
sVrd
p628
(I1
I41803
tp629
sVoptim
p630
(I1
I49782
tp631
sV294,650
p632
(I1
I67733
tp633
sVcheck
p634
(I1
I65082
tp635
sVgot
p636
(I1
I17291
tp637
sVvenezuela
p638
(I1
I44369
tp639
sVinop
p640
(I1
I55868
tp641
sVnavig
p642
(I1
I37347
tp643
sVrail
p644
(I1
I65657
tp645
sVu.s.
p646
(I46
I18335
tp647
sVsituat
p648
(I1
I40421
tp649
sVfree
p650
(I2
I22899
tp651
sVstandard
p652
(I7
I25842
tp653
sVmight
p654
(I5
I61179
tp655
sV4,350,000
p656
(I1
I43963
tp657
sS'CORPUS'
p658
(I200
I67873
tp659
sVwidespread
p660
(I2
I51642
tp661
sV3.95
p662
(I1
I46305
tp663
sVpuzzl
p664
(I1
I16667
tp665
sVlouw
p666
(I1
I31406
tp667
sVfilter
p668
(I3
I20148
tp669
sVrenew
p670
(I1
I34837
tp671
sVunabl
p672
(I2
I11750
tp673
sV6.7
p674
(I1
I55653
tp675
sV4,879,000
p676
(I1
I63621
tp677
sVkingdom
p678
(I1
I39059
tp679
sVman-mad
p680
(I1
I34529
tp681
sVhard-press
p682
(I1
I60776
tp683
sVlaps
p684
(I1
I67105
tp685
sV60,000-tonner
p686
(I1
I65787
tp687
sVrand
p688
(I1
I51447
tp689
sVrang
p690
(I7
I12950
tp691
sVnigel
p692
(I1
I52770
tp693
sV910,000
p694
(I1
I63921
tp695
sVstate-run
p696
(I1
I49723
tp697
sVgrade
p698
(I8
I25400
tp699
sV183,000
p700
(I1
I29068
tp701
sVindepend
p702
(I5
I35452
tp703
sVwast
p704
(I1
I54015
tp705
sVcapac
p706
(I3
I47160
tp707
sVrestrict
p708
(I4
I29570
tp709
sVunlik
p710
(I3
I15222
tp711
sValreadi
p712
(I3
I14458
tp713
sV178
p714
(I1
I53550
tp715
sVditch
p716
(I1
I9050
tp717
sVprimari
p718
(I5
I38178
tp719
sV170
p720
(I1
I20128
tp721
sVopen-market
p722
(I1
I56777
tp723
sVlister
p724
(I1
I34236
tp725
sVbancshar
p726
(I1
I59859
tp727
sV2058
p728
(I1
I40215
tp729
sVtop
p730
(I2
I36947
tp731
sVdeutsch
p732
(I1
I39116
tp733
sVamsterdam
p734
(I1
I42290
tp735
sVeuphoria
p736
(I1
I38398
tp737
sVmortgage-rel
p738
(I1
I31173
tp739
sVchicago-bas
p740
(I1
I36204
tp741
sV3.90/4.0
p742
(I1
I46324
tp743
sVton
p744
(I3
I28276
tp745
sVtoo
p746
(I2
I27237
tp747
sVtom
p748
(I1
I44817
tp749
sVheatley
p750
(I1
I59038
tp751
sVint'l
p752
(I1
I62011
tp753
sVdgic
p754
(I1
I33049
tp755
sVurban
p756
(I1
I61616
tp757
sVfebr
p758
(I1
I47130
tp759
sV5-15
p760
(I1
I57166
tp761
sVgeneva
p762
(I1
I62953
tp763
sVmassiv
p764
(I1
I61556
tp765
sV191
p766
(I1
I58269
tp767
sVtool
p768
(I2
I40602
tp769
sVgovernment-own
p770
(I1
I51833
tp771
sVtook
p772
(I2
I46354
tp773
sVcereai
p774
(I1
I56123
tp775
sVincur
p776
(I1
I58645
tp777
sVwestern
p778
(I8
I36839
tp779
sVsomewhat
p780
(I1
I46680
tp781
sVconserv
p782
(I1
I51984
tp783
sVlonger-term
p784
(I1
I61416
tp785
sVtechnic
p786
(I1
I44148
tp787
sV15.5
p788
(I1
I50215
tp789
sVtoronto
p790
(I1
I48734
tp791
sVperil
p792
(I1
I9297
tp793
sVtarget
p794
(I8
I39939
tp795
sVtren
p796
(I1
I33544
tp797
sVprovid
p798
(I22
I20569
tp799
sVhike
p800
(I2
I54044
tp801
sV21,200
p802
(I1
I65747
tp803
sVtree
p804
(I1
I39686
tp805
sVrate
p806
(I29
I29127
tp807
sV35.125
p808
(I1
I19780
tp809
sVfinal
p810
(I10
I38408
tp811
sVproject
p812
(I10
I33059
tp813
sVmatter
p814
(I1
I14325
tp815
sVchee
p816
(I1
I39841
tp817
sViron
p818
(I1
I64041
tp819
sV15.9
p820
(I1
I53183
tp821
sV18.1
p822
(I1
I42943
tp823
sVminut
p824
(I1
I8603
tp825
sV18.4
p826
(I1
I63352
tp827
sV18.7
p828
(I1
I53163
tp829
sVmillen
p830
(I1
I67315
tp831
sV174.7
p832
(I1
I43787
tp833
sV10,771,260
p834
(I1
I53383
tp835
sVrockwell'
p836
(I1
I26624
tp837
sVmaekawa
p838
(I1
I61466
tp839
sV210,000
p840
(I1
I42620
tp841
sVboston
p842
(I5
I35530
tp843
sVenjoin
p844
(I1
I57600
tp845
sVsalvag
p846
(I3
I9107
tp847
sVmine
p848
(I19
I27662
tp849
sV500,000
p850
(I1
I67255
tp851
sVraw
p852
(I4
I24152
tp853
sVmanner
p854
(I1
I62606
tp855
sVoverdu
p856
(I1
I54408
tp857
sVseen
p858
(I4
I39609
tp859
sVseem
p860
(I1
I38819
tp861
sVseek
p862
(I14
I36413
tp863
sVbeckett
p864
(I1
I42856
tp865
sVlbo
p866
(I1
I18325
tp867
sVabroad
p868
(I1
I58704
tp869
sVstrength
p870
(I2
I38351
tp871
sV340,000
p872
(I1
I42580
tp873
sV140,000
p874
(I1
I44583
tp875
sVharper
p876
(I1
I43630
tp877
sV1965
p878
(I1
I35462
tp879
sV60th
p880
(I1
I64554
tp881
sVespeci
p882
(I1
I58635
tp883
sV-
(I21
I31250
tp884
sVgambel
p885
(I1
I57807
tp886
sV2.77
p887
(I1
I53462
tp888
sVclient
p889
(I1
I46477
tp890
sVkaohsiung
p891
(I1
I63981
tp892
sVlasl.l
p893
(I1
I63053
tp894
sVthoroughli
p895
(I1
I62538
tp896
sV478,700
p897
(I1
I43943
tp898
sV2.97
p899
(I1
I63871
tp900
sVgermani
p901
(I1
I28921
tp902
sVltd.
p903
(I1
I38760
tp904
sVthough
p905
(I1
I55205
tp906
sVnon-ferr
p907
(I1
I9870
tp908
sVobject
p909
(I1
I56192
tp910
sVwhat
p911
(I3
I45990
tp912
sVvictoria
p913
(I1
I65647
tp914
sVmarin
p915
(I1
I41706
tp916
sVswiss
p917
(I3
I39242
tp918
sVregular
p919
(I3
I33761
tp920
sValan
p921
(I1
I62676
tp922
sVletter
p923
(I1
I62508
tp924
sV4,124,000
p925
(I1
I50046
tp926
sVphase
p927
(I3
I26967
tp928
sVdrought
p929
(I1
I52400
tp930
sVcoin
p931
(I1
I64347
tp932
sVes
p933
(I1
I49278
tp934
sV94.8
p935
(I1
I64912
tp936
sVtradit
p937
(I3
I49483
tp938
sV28.8
p939
(I1
I52312
tp940
sV323p
p941
(I1
I66096
tp942
sVcathod
p943
(I1
I64822
tp944
sV249,143
p945
(I1
I54172
tp946
sVenviro
p947
(I1
I62646
tp948
sVdomin
p949
(I2
I56222
tp950
sV73,000
p951
(I1
I32893
tp952
sVdoe
p953
(I10
I16164
tp954
sV48.2
p955
(I1
I53283
tp956
sVdeclar
p957
(I4
I59879
tp958
sVafter-tax
p959
(I1
I16005
tp960
sVprt-pay
p961
(I1
I53114
tp962
sVsunbeam
p963
(I1
I62051
tp964
sVdow
p965
(I1
I35946
tp966
sVkheng
p967
(I1
I39851
tp968
sV1987-1991
p969
(I1
I50282
tp970
sVd.
p971
(I1
I48380
tp972
sV336,000
p973
(I1
I57896
tp974
sV3,339,174
p975
(I1
I60027
tp976
sVprobe
p977
(I1
I60352
tp978
sVwriteoff
p979
(I1
I31119
tp980
sV8-1/4
p981
(I1
I65132
tp982
sV7.2
p983
(I2
I58773
tp984
sVadvisori
p985
(I1
I61436
tp986
sV7.0
p987
(I1
I64852
tp988
sVontario
p989
(I1
I60637
tp990
sVpoison
p991
(I1
I62626
tp992
sV7.5
p993
(I3
I41754
tp994
sV7.8
p995
(I1
I64902
tp996
sVnext
p997
(I10
I46487
tp998
sVinvolv
p999
(I5
I37788
tp1000
sVdespit
p1001
(I5
I26328
tp1002
sVbind
p1003
(I1
I60452
tp1004
sVacquir
p1005
(I18
I18205
tp1006
sVexplain
p1007
(I1
I7542
tp1008
sVmalaysian/singapor
p1009
(I1
I45906
tp1010
sVrestaur
p1011
(I1
I8031
tp1012
sVsugar
p1013
(I21
I23781
tp1014
sVbusi
p1015
(I19
I9947
tp1016
sV2.65
p1017
(I1
I42992
tp1018
sVrice
p1019
(I1
I56787
tp1020
sVfield'
p1021
(I1
I53213
tp1022
sVdo
p1023
(I2
I42087
tp1024
sV4.04
p1025
(I1
I30328
tp1026
sV4.03
p1027
(I1
I56886
tp1028
sV400
p1029
(I1
I52096
tp1030
sV10
p1031
(I16
I31464
tp1032
sVde
p1033
(I8
I30103
tp1034
sVstop
p1035
(I3
I48988
tp1036
sVcoast
p1037
(I1
I57284
tp1038
sV94,647,000
p1039
(I1
I30308
tp1040
sV25,000
p1041
(I1
I25998
tp1042
sVunderwritten
p1043
(I1
I37511
tp1044
sVreport
p1045
(I33
I24386
tp1046
sVdr
p1047
(I1
I33594
tp1048
sVconn.
p1049
(I1
I48194
tp1050
sV4.4
p1051
(I2
I61775
tp1052
sVearn
p1053
(I18
I16015
tp1054
sVbar
p1055
(I2
I56016
tp1056
sV50-1/4
p1057
(I1
I36917
tp1058
sVdual-lit
p1059
(I1
I32691
tp1060
sVnon-denatur
p1061
(I1
I38118
tp1062
sVbay
p1063
(I1
I36679
tp1064
sVbag
p1065
(I2
I4020
tp1066
sVbad
p1067
(I1
I58329
tp1068
sV67.6
p1069
(I1
I53343
tp1070
sVcoke
p1071
(I1
I67843
tp1072
sV18
p1073
(I3
I8861
tp1074
sVban
p1075
(I1
I55957
tp1076
sVseptemb
p1077
(I6
I2376
tp1078
sVsteam
p1079
(I1
I37337
tp1080
sV66.2
p1081
(I1
I1004
tp1082
sV:
(I2
I7777
tp1083
sVepac
p1084
(I1
I56026
tp1085
sV66.4
p1086
(I1
I28217
tp1087
sVongo
p1088
(I1
I59475
tp1089
sVw.
p1090
(I1
I48214
tp1091
sVldt
p1092
(I1
I63851
tp1093
sV287,000
p1094
(I1
I29048
tp1095
sVresist
p1096
(I1
I40160
tp1097
sVohio-bas
p1098
(I1
I35385
tp1099
sVresult
p1100
(I25
I9031
tp1101
sVrespons
p1102
(I5
I24934
tp1103
sVcorrupt
p1104
(I1
I66705
tp1105
sViran
p1106
(I1
I66445
tp1107
sV50.7
p1108
(I1
I43670
tp1109
sVbest
p1110
(I1
I45297
tp1111
sVsubject
p1112
(I5
I7216
tp1113
sVawar
p1114
(I2
I40364
tp1115
sVsaid
p1116
(I432
I2906
tp1117
sVk.k
p1118
(I1
I58516
tp1119
sVaway
p1120
(I2
I49132
tp1121
sVplc.the
p1122
(I1
I66375
tp1123
sVirv
p1124
(I1
I55175
tp1125
sVyet
p1126
(I1
I52941
tp1127
sVfigur
p1128
(I9
I32262
tp1129
sVshearon
p1130
(I1
I13070
tp1131
sVoutstand
p1132
(I4
I52322
tp1133
sVdrawn
p1134
(I1
I50254
tp1135
sVtechnodyn
p1136
(I1
I50911
tp1137
sVapproach
p1138
(I4
I17996
tp1139
sV21.203
p1140
(I1
I53907
tp1141
sVattribut
p1142
(I1
I26595
tp1143
sVaccord
p1144
(I9
I10049
tp1145
sVmen
p1146
(I1
I61941
tp1147
sVextend
p1148
(I8
I8750
tp1149
sV40.0
p1150
(I1
I59167
tp1151
sVweak
p1152
(I2
I26663
tp1153
sV33,000
p1154
(I1
I28256
tp1155
sVextens
p1156
(I4
I9021
tp1157
sVextent
p1158
(I2
I37024
tp1159
sV387
p1160
(I1
I35336
tp1161
sVnews
p1162
(I3
I54301
tp1163
sVdebt
p1164
(I10
I20757
tp1165
sV42.5
p1166
(I1
I50871
tp1167
sV15.14
p1168
(I1
I53520
tp1169
sVwx
p1170
(I1
I35200
tp1171
sVunp
p1172
(I1
I44310
tp1173
sVfnv
p1174
(I1
I32224
tp1175
sVprotect
p1176
(I2
I37443
tp1177
sVs.africa
p1178
(I1
I51437
tp1179
sVfault
p1180
(I1
I37769
tp1181
sVhowev
p1182
(I8
I16550
tp1183
sVtlxn
p1184
(I1
I24347
tp1185
sVagainst
p1186
(I14
I36254
tp1187
sV60.8
p1188
(I1
I8241
tp1189
sVcountri
p1190
(I1
I1577
tp1191
sVuncertainti
p1192
(I1
I57412
tp1193
sV60.0
p1194
(I1
I46544
tp1195
sVbran
p1196
(I1
I66775
tp1197
sVprospect
p1198
(I3
I54714
tp1199
sVassur
p1200
(I2
I44671
tp1201
sVtone
p1202
(I1
I59581
tp1203
sVcyclop
p1204
(I1
I62001
tp1205
sVapplianc
p1206
(I2
I33212
tp1207
sVhad
p1208
(I47
I10068
tp1209
sV1.6
p1210
(I1
I57976
tp1211
sV2nd
p1212
(I6
I28008
tp1213
sVkwp
p1214
(I1
I53817
tp1215
sVconglommer
p1216
(I1
I62438
tp1217
sVwider
p1218
(I1
I55244
tp1219
sVtrust
p1220
(I3
I54252
tp1221
sVassum
p1222
(I1
I23154
tp1223
sVsubsidi
p1224
(I1
I31212
tp1225
sVliabil
p1226
(I6
I37578
tp1227
sV3.80
p1228
(I1
I58949
tp1229
sVbeef
p1230
(I1
I25337
tp1231
sVunion
p1232
(I19
I9695
tp1233
sVselloff
p1234
(I1
I35908
tp1235
sVthree
p1236
(I13
I19752
tp1237
sVbeen
p1238
(I12
I4547
tp1239
sV.
(I97
I2925
tp1240
sVspecul
p1241
(I4
I14758
tp1242
sVrevenu
p1243
(I11
I24367
tp1244
sVbeer
p1245
(I1
I66026
tp1246
sVmuch
p1247
(I8
I33108
tp1248
sVbeet
p1249
(I1
I28378
tp1250
sVinterest
p1251
(I21
I12299
tp1252
sVbasic
p1253
(I1
I47569
tp1254
sV3,778,000
p1255
(I1
I43226
tp1256
sVfutur
p1257
(I16
I2538
tp1258
sVbasin
p1259
(I3
I52896
tp1260
sV8,531
p1261
(I1
I41453
tp1262
sVundermin
p1263
(I1
I55448
tp1264
sVbraverman
p1265
(I1
I55165
tp1266
sVlife
p1267
(I9
I22475
tp1268
sVregul
p1269
(I2
I40669
tp1270
sVeastern
p1271
(I1
I52449
tp1272
sVdismiss
p1273
(I1
I34885
tp1274
sVworker
p1275
(I3
I47712
tp1276
sV95,563
p1277
(I1
I65012
tp1278
sVmca
p1279
(I1
I35326
tp1280
sVlift
p1281
(I5
I29560
tp1282
sVadministration'
p1283
(I1
I61012
tp1284
sV165
p1285
(I1
I63861
tp1286
sVspin
p1287
(I2
I16072
tp1288
sV5.3
p1289
(I1
I66196
tp1290
sVgnp
p1291
(I1
I61596
tp1292
sVsave
p1293
(I5
I33863
tp1294
sVtank
p1295
(I1
I20244
tp1296
sV904
p1297
(I1
I51273
tp1298
sV2,745,288
p1299
(I1
I54202
tp1300
sVservic
p1301
(I17
I13760
tp1302
sVproperti
p1303
(I3
I45307
tp1304
sVgasolin
p1305
(I2
I47626
tp1306
sVcommerci
p1307
(I4
I48607
tp1308
sVair
p1309
(I1
I20449
tp1310
sVemploy
p1311
(I4
I31759
tp1312
sVcalcul
p1313
(I1
I47170
tp1314
sVp.j
p1315
(I1
I44272
tp1316
sVmid-atlant
p1317
(I1
I67354
tp1318
sV824.3
p1319
(I1
I59779
tp1320
sVaid
p1321
(I1
I65896
tp1322
sVpharmaci
p1323
(I1
I65976
tp1324
sVseven
p1325
(I11
I39910
tp1326
sVcane
p1327
(I4
I28605
tp1328
sVis
p1329
(I122
I7162
tp1330
sVit
p1331
(I366
I5347
tp1332
sV81.3
p1333
(I1
I56836
tp1334
sVin
p1335
(I339
I3268
tp1336
sVuplift
p1337
(I1
I53223
tp1338
sVboom
p1339
(I2
I38225
tp1340
sVsever
p1341
(I10
I20350
tp1342
sVif
p1343
(I18
I10515
tp1344
sVgrown
p1345
(I1
I65539
tp1346
sVhong
p1347
(I2
I51164
tp1348
sVinventori
p1349
(I3
I44488
tp1350
sVrockwel
p1351
(I1
I26279
tp1352
sVcredit
p1353
(I13
I42541
tp1354
sVperform
p1355
(I1
I26411
tp1356
sV337.3
p1357
(I1
I898
tp1358
sVmake
p1359
(I19
I15929
tp1360
sVformat
p1361
(I1
I59591
tp1362
sV8,994,000
p1363
(I1
I43739
tp1364
sVsplit
p1365
(I6
I25191
tp1366
sVjungl
p1367
(I1
I62706
tp1368
sVelectro
p1369
(I1
I50783
tp1370
sVrebound
p1371
(I2
I55527
tp1372
sVcomplet
p1373
(I16
I20608
tp1374
sVgalact
p1375
(I1
I48715
tp1376
sV93,100
p1377
(I1
I57056
tp1378
sVnil
p1379
(I4
I34110
tp1380
sVhang
p1381
(I1
I55116
tp1382
sVrain
p1383
(I3
I52459
tp1384
sVhand
p1385
(I2
I38839
tp1386
sVseamen
p1387
(I1
I48115
tp1388
sVrais
p1389
(I17
I16841
tp1390
sVownership
p1391
(I1
I65221
tp1392
sVrefin
p1393
(I1
I44478
tp1394
sV209.3
p1395
(I1
I45533
tp1396
sVcocoa
p1397
(I1
I62189
tp1398
sV9-1/2
p1399
(I1
I38691
tp1400
sV1979
p1401
(I1
I64436
tp1402
sV1978
p1403
(I1
I64426
tp1404
sVthu
p1405
(I1
I53233
tp1406
sV1974
p1407
(I1
I37635
tp1408
sV1970
p1409
(I1
I66695
tp1410
sVcontact
p1411
(I2
I4087
tp1412
sVshortli
p1413
(I1
I67235
tp1414
sVgreatest
p1415
(I1
I27341
tp1416
sVthi
p1417
(I64
I4296
tp1418
sV18.924
p1419
(I1
I53897
tp1420
sVthe
p1421
(I1169
I6038
tp1422
sV800
p1423
(I3
I32075
tp1424
sVmoreov
p1425
(I1
I55028
tp1426
sVlegisl
p1427
(I3
I29245
tp1428
sVunchang
p1429
(I10
I3115
tp1430
sVidentifi
p1431
(I2
I51690
tp1432
sVjust
p1433
(I2
I64505
tp1434
sVyen
p1435
(I9
I58447
tp1436
sVcargil
p1437
(I1
I42679
tp1438
sVunfair
p1439
(I2
I56241
tp1440
sVhofer
p1441
(I1
I64248
tp1442
sVgendi
p1443
(I1
I54418
tp1444
sV8.14
p1445
(I1
I61002
tp1446
sV8.16
p1447
(I1
I47229
tp1448
sVbit
p1449
(I2
I41041
tp1450
sVprevious
p1451
(I15
I17301
tp1452
sVeli
p1453
(I1
I66116
tp1454
sV2,020,000
p1455
(I1
I22347
tp1456
sVyamaha
p1457
(I1
I54368
tp1458
sV5,800,00
p1459
(I1
I30717
tp1460
sVroyal
p1461
(I5
I37885
tp1462
sVamoco
p1463
(I2
I53433
tp1464
sVbrisban
p1465
(I1
I65588
tp1466
sVcravath
p1467
(I1
I60253
tp1468
sVspread
p1469
(I2
I55215
tp1470
sVboard
p1471
(I26
I28436
tp1472
sVchinkuli
p1473
(I1
I65866
tp1474
sVnon-u.s.
p1475
(I1
I57116
tp1476
sV282,000
p1477
(I1
I33564
tp1478
sVgave
p1479
(I4
I38418
tp1480
sVapplic
p1481
(I2
I34827
tp1482
sVstos.
p1483
(I1
I66975
tp1484
sVadvis
p1485
(I3
I60283
tp1486
sV515.1
p1487
(I1
I27779
tp1488
sVfirmer
p1489
(I1
I59571
tp1490
sVcampeau
p1491
(I1
I65152
tp1492
sVdisput
p1493
(I4
I31639
tp1494
sVrumor
p1495
(I1
I12800
tp1496
sVbpd
p1497
(I1
I44593
tp1498
sVmeasur
p1499
(I11
I29362
tp1500
sVexxon
p1501
(I1
I57629
tp1502
sV58
p1503
(I1
I32814
tp1504
sVspecif
p1505
(I1
I65281
tp1506
sV55
p1507
(I2
I22318
tp1508
sV57
p1509
(I1
I50500
tp1510
sVhunt
p1511
(I1
I57847
tp1512
sV51
p1513
(I4
I23107
tp1514
sV50
p1515
(I7
I16044
tp1516
sV53
p1517
(I2
I54428
tp1518
sV1.35
p1519
(I1
I43581
tp1520
sVdigniti
p1521
(I1
I47307
tp1522
sVmapara
p1523
(I1
I49189
tp1524
sVconfid
p1525
(I3
I51457
tp1526
sVnight
p1527
(I1
I40650
tp1528
sV1.37
p1529
(I1
I54507
tp1530
sVrespecivt
p1531
(I1
I25097
tp1532
sVright
p1533
(I5
I33165
tp1534
sVold
p1535
(I2
I40055
tp1536
sVdeal
p1537
(I13
I35091
tp1538
sV46.5
p1539
(I1
I43680
tp1540
sVfiduciari
p1541
(I1
I62528
tp1542
sVupham
p1543
(I1
I55614
tp1544
sVmalaysia
p1545
(I4
I34023
tp1546
sVdonald
p1547
(I3
I26440
tp1548
sV573.1
p1549
(I1
I53373
tp1550
sVborg
p1551
(I1
I64763
tp1552
sVindirect
p1553
(I1
I51418
tp1554
sV221.5
p1555
(I1
I27968
tp1556
sV3,217,500
p1557
(I1
I43953
tp1558
sVici
p1559
(I1
I34226
tp1560
sVico
p1561
(I4
I1053
tp1562
sVfor
p1563
(I106
I1669
tp1564
sVpreliminari
p1565
(I2
I46967
tp1566
sVdehesa
p1567
(I1
I30132
tp1568
sVmay-oct
p1569
(I1
I42660
tp1570
sVmay/juli
p1571
(I1
I59425
tp1572
sVcondit
p1573
(I4
I21740
tp1574
sV6,654,000
p1575
(I1
I28169
tp1576
sVgrowers'
p1577
(I1
I52488
tp1578
sVplu
p1579
(I3
I22966
tp1580
sV9.27
p1581
(I1
I54822
tp1582
sV9.25
p1583
(I1
I45026
tp1584
sVcorn
p1585
(I5
I25899
tp1586
sV7-eleven
p1587
(I1
I65986
tp1588
sVconfer
p1589
(I5
I26807
tp1590
sVdiscount
p1591
(I1
I38583
tp1592
sVplc
p1593
(I13
I34275
tp1594
sV2,885,000
p1595
(I1
I43660
tp1596
sVpost
p1597
(I2
I7333
tp1598
sVmedium-
p1599
(I1
I60134
tp1600
sVpois
p1601
(I1
I53697
tp1602
sVslightli
p1603
(I4
I28368
tp1604
sVchoke
p1605
(I1
I41433
tp1606
sVo
(I1
I37964
tp1607
sVrebuf
p1608
(I1
I17958
tp1609
sVyr-ago
p1610
(I1
I7983
tp1611
sVbanker
p1612
(I4
I30017
tp1613
sVcommit
p1614
(I7
I21099
tp1615
sVsept
p1616
(I1
I54358
tp1617
sVproduc
p1618
(I20
I1063
tp1619
sV1,424,000
p1620
(I1
I33703
tp1621
sVtelephon
p1622
(I1
I62973
tp1623
sVpre-tax
p1624
(I5
I30338
tp1625
sVpropros
p1626
(I1
I63441
tp1627
sVcivil
p1628
(I1
I56162
tp1629
sVregist
p1630
(I1
I34216
tp1631
sVbounc
p1632
(I1
I55634
tp1633
sV2,959,029
p1634
(I1
I59987
tp1635
sVprofession
p1636
(I1
I22976
tp1637
sVppn
p1638
(I1
I40205
tp1639
sVdown
p1640
(I19
I38849
tp1641
sVentrepreneur
p1642
(I1
I22928
tp1643
sV48,000
p1644
(I1
I50559
tp1645
sVopportun
p1646
(I8
I39492
tp1647
sVupkeep
p1648
(I1
I61874
tp1649
sV39.5
p1650
(I1
I52332
tp1651
sVstorag
p1652
(I1
I65351
tp1653
sV39.3
p1654
(I1
I43002
tp1655
sV21.7
p1656
(I1
I27749
tp1657
sVsuffici
p1658
(I1
I66216
tp1659
sVsupport
p1660
(I9
I40830
tp1661
sVsovereign
p1662
(I2
I39030
tp1663
sVclass
p1664
(I2
I56426
tp1665
sVspokemsan
p1666
(I1
I35356
tp1667
sV125.0
p1668
(I1
I46986
tp1669
sVreli
p1670
(I1
I65381
tp1671
sVgroundnut
p1672
(I1
I50445
tp1673
sVway
p1674
(I4
I38437
tp1675
sVunseat
p1676
(I1
I62319
tp1677
sV125.8
p1678
(I1
I26556
tp1679
sVphotron
p1680
(I1
I54133
tp1681
sVretali
p1682
(I1
I60392
tp1683
sVsupply/pric
p1684
(I1
I39638
tp1685
sVhead
p1686
(I5
I27208
tp1687
sVmedium
p1688
(I3
I59514
tp1689
sV8.4
p1690
(I1
I66256
tp1691
sVform
p1692
(I13
I18278
tp1693
sVoffer
p1694
(I32
I17882
tp1695
sVforc
p1696
(I6
I10861
tp1697
sV798,289
p1698
(I1
I59947
tp1699
sV262,738
p1700
(I1
I59967
tp1701
sVlawn
p1702
(I1
I62080
tp1703
sVsubsidis
p1704
(I2
I53038
tp1705
sVbere
p1706
(I1
I57471
tp1707
sVurg
p1708
(I2
I42116
tp1709
sV228
p1710
(I1
I34569
tp1711
sV8,500
p1712
(I1
I41521
tp1713
sVanalyst
p1714
(I8
I14904
tp1715
sV639.7
p1716
(I1
I59769
tp1717
sV6,959,000
p1718
(I1
I43207
tp1719
sVwhites-onli
p1720
(I1
I51543
tp1721
sV16,300
p1722
(I1
I65767
tp1723
sVintern
p1724
(I26
I1344
tp1725
sVtell
p1726
(I1
I60952
tp1727
sVbreak-up
p1728
(I1
I62448
tp1729
sVinaccur
p1730
(I1
I35607
tp1731
sV3.5
p1732
(I4
I16505
tp1733
sVabsenc
p1734
(I1
I55155
tp1735
sV137.8
p1736
(I1
I46908
tp1737
sVretir
p1738
(I1
I59661
tp1739
sVgleneagl
p1740
(I1
I66056
tp1741
sV150
p1742
(I2
I45878
tp1743
sV152
p1744
(I1
I48056
tp1745
sVbankamerica
p1746
(I1
I65231
tp1747
sVpetit
p1748
(I1
I25531
tp1749
sVallegheni
p1750
(I3
I56357
tp1751
sVconsciou
p1752
(I1
I65301
tp1753
sVzambian
p1754
(I1
I49239
tp1755
sVproven
p1756
(I1
I40314
tp1757
sVdrive
p1758
(I1
I55683
tp1759
sV''
p1760
(I69
I16895
tp1761
sVkhj
p1762
(I1
I35424
tp1763
sVexist
p1764
(I5
I44177
tp1765
sVcarryov
p1766
(I1
I6944
tp1767
sVrequest
p1768
(I1
I62478
tp1769
sVship
p1770
(I7
I37111
tp1771
sVdealer
p1772
(I22
I38564
tp1773
sV11,489,000
p1774
(I1
I54467
tp1775
sVni
p1776
(I1
I58210
tp1777
sVsmelt
p1778
(I1
I36727
tp1779
sVno
p1780
(I17
I11095
tp1781
sVinterst
p1782
(I1
I21953
tp1783
sVholli
p1784
(I1
I45385
tp1785
sVstake
p1786
(I16
I14805
tp1787
sVwhen
p1788
(I13
I17986
tp1789
sVflood
p1790
(I1
I38809
tp1791
sVstagnant
p1792
(I1
I62299
tp1793
sVtest
p1794
(I1
I45209
tp1795
sVappetit
p1796
(I1
I55302
tp1797
sVshort-term
p1798
(I4
I61110
tp1799
sVroll
p1800
(I1
I46719
tp1801
sVnv
p1802
(I1
I62943
tp1803
sVsteamship
p1804
(I1
I37415
tp1805
sVlegitim
p1806
(I1
I47239
tp1807
sV's
p1808
(I138
I13115
tp1809
sV1,555,000
p1810
(I1
I33624
tp1811
sVexpress'
p1812
(I1
I16409
tp1813
sVnorstar
p1814
(I1
I50617
tp1815
sVfell
p1816
(I15
I35656
tp1817
sVreign
p1818
(I1
I64584
tp1819
sVconsid
p1820
(I8
I12845
tp1821
sVcooper
p1822
(I1
I50988
tp1823
sVweekend
p1824
(I1
I35758
tp1825
sV17-mar-1987
p1826
(I1
I50607
tp1827
sVbillion
p1828
(I67
I1024
tp1829
sVwarn
p1830
(I1
I55712
tp1831
sVundisclos
p1832
(I5
I33296
tp1833
sVnon-prescript
p1834
(I1
I61854
tp1835
sVpacer
p1836
(I1
I41862
tp1837
sV2,198,000
p1838
(I1
I22406
tp1839
sVcheaper
p1840
(I1
I65391
tp1841
sVottawa
p1842
(I1
I44787
tp1843
sVfso
p1844
(I1
I64872
tp1845
sVtime
p1846
(I12
I18345
tp1847
sVn.j.
p1848
(I1
I35316
tp1849
sVserious
p1850
(I1
I40007
tp1851
sVdaili
p1852
(I4
I46574
tp1853
sVcorpu
p1854
(I1
I44399
tp1855
sVshop
p1856
(I1
I65201
tp1857
sVrok
p1858
(I1
I26289
tp1859
sVweek-long
p1860
(I1
I60982
tp1861
sVchain
p1862
(I1
I39395
tp1863
sV35.0
p1864
(I1
I52223
tp1865
sVconsum
p1866
(I15
I4179
tp1867
sVfocus
p1868
(I1
I15003
tp1869
sVkiena
p1870
(I1
I43091
tp1871
sVnon-prt
p1872
(I1
I52799
tp1873
sVsignific
p1874
(I4
I26309
tp1875
sVmill
p1876
(I2
I44224
tp1877
sVrow
p1878
(I1
I42068
tp1879
sVdecid
p1880
(I6
I14401
tp1881
sV92
p1882
(I1
I38158
tp1883
sVdepend
p1884
(I1
I49693
tp1885
sVzone
p1886
(I2
I47278
tp1887
sVtariff
p1888
(I1
I60372
tp1889
sV101-1/4
p1890
(I1
I38701
tp1891
sVenvironment
p1892
(I1
I57797
tp1893
sV0
(I1
I60402
tp1894
sVvicta
p1895
(I1
I62070
tp1896
sVdecis
p1897
(I11
I8648
tp1898
sV96
p1899
(I2
I43710
tp1900
sV483,000
p1901
(I1
I42788
tp1902
sVbrown
p1903
(I1
I62368
tp1904
sVshipbreak
p1905
(I1
I63761
tp1906
sVsourc
p1907
(I13
I26047
tp1908
sVeurosterl
p1909
(I1
I38197
tp1910
sVminist
p1911
(I10
I31269
tp1912
sV1990
p1913
(I2
I32158
tp1914
sVmay-apr
p1915
(I1
I65807
tp1916
sV1993
p1917
(I1
I61576
tp1918
sVfeasibl
p1919
(I1
I48540
tp1920
sVlynch
p1921
(I1
I54782
tp1922
sVoctob
p1923
(I3
I10351
tp1924
sV1995
p1925
(I1
I61586
tp1926
sVmoura
p1927
(I1
I48036
tp1928
sVfailur
p1929
(I2
I47807
tp1930
sV469,900
p1931
(I1
I58802
tp1932
sVadministr
p1933
(I1
I57324
tp1934
sVlevel
p1935
(I18
I11041
tp1936
sVdid
p1937
(I5
I7443
tp1938
sVdisqualifi
p1939
(I1
I35491
tp1940
sVbrother
p1941
(I7
I12921
tp1942
sVend-februari
p1943
(I1
I28567
tp1944
sVp
(I1
I37954
tp1945
sVquick
p1946
(I1
I61276
tp1947
sVlever
p1948
(I1
I66246
tp1949
sVdiv
p1950
(I6
I22108
tp1951
sVcloudi
p1952
(I1
I55008
tp1953
sVclearanc
p1954
(I1
I21915
tp1955
sVprevent
p1956
(I2
I61189
tp1957
sV55.7
p1958
(I1
I22436
tp1959
sVtrend
p1960
(I1
I26919
tp1961
sV2.62
p1962
(I1
I58319
tp1963
sV2,445,423
p1964
(I1
I60037
tp1965
sVcompens
p1966
(I1
I37043
tp1967
sVsign
p1968
(I10
I36582
tp1969
sVcost
p1970
(I28
I11311
tp1971
sValfr
p1972
(I1
I60676
tp1973
sVport
p1974
(I10
I31193
tp1975
sVcargo
p1976
(I10
I24105
tp1977
sVlennox
p1978
(I1
I59455
tp1979
sVappear
p1980
(I4
I45849
tp1981
sVcurrenc
p1982
(I6
I38042
tp1983
sVringgit
p1984
(I1
I34157
tp1985
sVumar.l
p1986
(I1
I53966
tp1987
sVfavour
p1988
(I9
I29864
tp1989
sVuniform
p1990
(I1
I65431
tp1991
sVcurrent
p1992
(I25
I11912
tp1993
sVgome
p1994
(I1
I48026
tp1995
sVappeal
p1996
(I10
I35346
tp1997
sVboost
p1998
(I3
I50235
tp1999
sVhonour
p2000
(I1
I47150
tp2001
sVgener
p2002
(I25
I31610
tp2003
sVfrench
p2004
(I1
I28407
tp2005
sVwater
p2006
(I2
I50389
tp2007
sVupstat
p2008
(I1
I50687
tp2009
sVpromissori
p2010
(I1
I54388
tp2011
sVaddress
p2012
(I1
I26797
tp2013
sValong
p2014
(I3
I44167
tp2015
sVspeci
p2016
(I1
I40294
tp2017
sVafg
p2018
(I1
I62388
tp2019
sVwait
p2020
(I1
I62488
tp2021
sVbox
p2022
(I2
I60884
tp2023
sVmid-april
p2024
(I1
I55751
tp2025
sVcanadian
p2026
(I21
I20055
tp2027
sVshift
p2028
(I2
I51496
tp2029
sVbor
p2030
(I1
I64723
tp2031
sVworldwid
p2032
(I6
I13697
tp2033
sVfinnish
p2034
(I1
I46738
tp2035
sV57.0
p2036
(I1
I46516
tp2037
sVpeterson/purittan
p2038
(I1
I40480
tp2039
sVcorp
p2040
(I66
I18176
tp2041
sVend-januari
p2042
(I1
I56846
tp2043
sVmontreal
p2044
(I1
I63312
tp2045
sVnat'l
p2046
(I1
I63402
tp2047
sVelect
p2048
(I1
I51553
tp2049
sV1,000
p2050
(I1
I62745
tp2051
sVextra
p2052
(I2
I58920
tp2053
sVprefer
p2054
(I1
I50978
tp2055
sVfbc
p2056
(I1
I56396
tp2057
sVstandwel
p2058
(I1
I49170
tp2059
sVseattl
p2060
(I1
I51154
tp2061
sV1st
p2062
(I8
I28140
tp2063
sVinstal
p2064
(I1
I62823
tp2065
sV95.7
p2066
(I1
I63641
tp2067
sVmobil
p2068
(I2
I44052
tp2069
sVmarket
p2070
(I82
I9812
tp2071
sVillicitli
p2072
(I1
I66715
tp2073
sVjan
p2074
(I12
I28018
tp2075
sV325.6
p2076
(I1
I66315
tp2077
sVwane
p2078
(I1
I55321
tp2079
sVvisit
p2080
(I3
I47249
tp2081
sVimpos
p2082
(I8
I47550
tp2083
sVlive
p2084
(I4
I61022
tp2085
sVoutright
p2086
(I1
I56946
tp2087
sVperu
p2088
(I1
I62666
tp2089
sVaustralian
p2090
(I7
I22688
tp2091
sVtoday
p2092
(I29
I8546
tp2093
sVcapit
p2094
(I21
I13144
tp2095
sV3-1/8
p2096
(I1
I35975
tp2097
sVnstc.tok
p2098
(I1
I58418
tp2099
sV15.37
p2100
(I1
I53490
tp2101
sVclub
p2102
(I1
I66885
tp2103
sVpeopl
p2104
(I3
I47442
tp2105
sVclaus
p2106
(I1
I56308
tp2107
sV12-1/2
p2108
(I1
I44777
tp2109
sVenhanc
p2110
(I4
I16448
tp2111
sV9,394,000
p2112
(I1
I43797
tp2113
sVthree-
p2114
(I1
I54862
tp2115
sVexamin
p2116
(I2
I8953
tp2117
sVventur
p2118
(I11
I30928
tp2119
sV3-3/8
p2120
(I1
I36081
tp2121
sVeffort
p2122
(I8
I9078
tp2123
sVbehalf
p2124
(I2
I32272
tp2125
sVreligi
p2126
(I1
I67384
tp2127
sVdemolish
p2128
(I1
I63801
tp2129
sVtokyo
p2130
(I14
I50998
tp2131
sVferri
p2132
(I1
I36927
tp2133
sVprepar
p2134
(I2
I49512
tp2135
sVrko'
p2136
(I1
I34799
tp2137
sVfocu
p2138
(I2
I27122
tp2139
sVzhao
p2140
(I1
I58586
tp2141
sVcan
p2142
(I16
I16796
tp2143
sVinadequ
p2144
(I1
I61266
tp2145
sVimped
p2146
(I1
I65450
tp2147
sVhinkley
p2148
(I1
I63541
tp2149
sVpurpos
p2150
(I5
I36293
tp2151
sVclaim
p2152
(I11
I36470
tp2153
sVanti-infl
p2154
(I1
I47854
tp2155
sVboycot
p2156
(I1
I67464
tp2157
sVtrump
p2158
(I1
I36185
tp2159
sVkenneth
p2160
(I1
I49434
tp2161
sVpredict
p2162
(I2
I18466
tp2163
sV1,916,000
p2164
(I1
I60559
tp2165
sV112,500
p2166
(I1
I50350
tp2167
sVexplos
p2168
(I1
I61506
tp2169
sVagent
p2170
(I1
I57146
tp2171
sVheard
p2172
(I1
I60666
tp2173
sVn.y.
p2174
(I1
I67613
tp2175
sVcouncil
p2176
(I2
I8454
tp2177
sVagenc
p2178
(I6
I30766
tp2179
sV230
p2180
(I1
I66355
tp2181
sVoccur
p2182
(I3
I40947
tp2183
sV555.6
p2184
(I1
I66295
tp2185
sVlusaka
p2186
(I1
I49822
tp2187
sVwinter
p2188
(I1
I42610
tp2189
sVeconomi
p2190
(I5
I30074
tp2191
sV1
(I12
I2005
tp2192
sVsunday
p2193
(I1
I15285
tp2194
sVvital
p2195
(I2
I49454
tp2196
sVnyn
p2197
(I1
I52614
tp2198
sVfourth
p2199
(I2
I25050
tp2200
sVrecapit
p2201
(I2
I45592
tp2202
sVaerospac
p2203
(I1
I62428
tp2204
sVafternoon
p2205
(I1
I40908
tp2206
sVproduct
p2207
(I37
I27500
tp2208
sV3.44
p2209
(I1
I28872
tp2210
sVsunter
p2211
(I1
I56406
tp2212
sVmay
p2213
(I30
I14777
tp2214
sVdisagre
p2215
(I1
I56006
tp2216
sVclone
p2217
(I1
I40084
tp2218
sVuse
p2219
(I11
I40113
tp2220
sVsouthern
p2221
(I3
I52868
tp2222
sVconstraint
p2223
(I1
I65489
tp2224
sVjacqu
p2225
(I1
I31858
tp2226
sVlevi
p2227
(I2
I38023
tp2228
sV4th
p2229
(I3
I176
tp2230
sVpasseng
p2231
(I1
I37062
tp2232
sVhediard
p2233
(I1
I66086
tp2234
sVdate
p2235
(I1
I55761
tp2236
sVsuch
p2237
(I16
I39040
tp2238
sVmgl
p2239
(I1
I42904
tp2240
sVdata
p2241
(I4
I30424
tp2242
sVgrow
p2243
(I3
I51747
tp2244
sVhoc
p2245
(I1
I45395
tp2246
sVneco
p2247
(I1
I63232
tp2248
sVstress
p2249
(I2
I58675
tp2250
sVpractic
p2251
(I1
I35588
tp2252
sVliquid
p2253
(I11
I34588
tp2254
sV16,000
p2255
(I1
I63023
tp2256
sV49-1/2
p2257
(I1
I36794
tp2258
sVdivid
p2259
(I1
I15865
tp2260
sVexplicit
p2261
(I1
I61516
tp2262
sV34.23
p2263
(I1
I64080
tp2264
sVsu
p2265
(I1
I56386
tp2266
sVinform
p2267
(I6
I48301
tp2268
sVswitch
p2269
(I2
I64130
tp2270
sV305,000
p2271
(I1
I42689
tp2272
sVso
p2273
(I5
I38254
tp2274
sVdeposit
p2275
(I8
I29108
tp2276
sVsc
p2277
(I1
I41813
tp2278
sVnynex
p2279
(I1
I52604
tp2280
sVtalk
p2281
(I10
I8339
tp2282
sVzeebrugg
p2283
(I1
I36976
tp2284
sV12.75
p2285
(I1
I28730
tp2286
sVttx
p2287
(I1
I52584
tp2288
sV81
p2289
(I2
I49733
tp2290
sVanticip
p2291
(I6
I35713
tp2292
sVgradual
p2293
(I2
I56328
tp2294
sVapprov
p2295
(I22
I23024
tp2296
sVxuto
p2297
(I1
I46029
tp2298
sVkong
p2299
(I1
I51174
tp2300
sVarm
p2301
(I1
I61071
tp2302
sVincreas
p2303
(I35
I12010
tp2304
sVspinoff
p2305
(I2
I12855
tp2306
sVequip
p2307
(I2
I55624
tp2308
sV557,000
p2309
(I1
I22328
tp2310
sVstill
p2311
(I7
I36611
tp2312
sVmainli
p2313
(I8
I47597
tp2314
sVdynam
p2315
(I2
I41989
tp2316
sVentiti
p2317
(I2
I47288
tp2318
sVdbrn
p2319
(I1
I27998
tp2320
sVgroup
p2321
(I42
I4106
tp2322
sVmonitor
p2323
(I2
I40411
tp2324
sV13.74
p2325
(I1
I28595
tp2326
sVpolici
p2327
(I9
I25580
tp2328
sVpassag
p2329
(I1
I61286
tp2330
sVjim
p2331
(I1
I22030
tp2332
sVmaiz
p2333
(I5
I50549
tp2334
sVaviv
p2335
(I1
I32970
tp2336
sVmail
p2337
(I1
I52174
tp2338
sVmain
p2339
(I5
I45708
tp2340
sV488,759
p2341
(I1
I63691
tp2342
sV936
p2343
(I1
I37875
tp2344
sV133,000
p2345
(I1
I48695
tp2346
sVnon
p2347
(I1
I60442
tp2348
sVhalt
p2349
(I4
I54291
tp2350
sV3
(I4
I45151
tp2351
sVfinanci
p2352
(I22
I11615
tp2353
sV100,000
p2354
(I1
I50331
tp2355
sVjame
p2356
(I1
I59631
tp2357
sVshatter
p2358
(I1
I61306
tp2359
sViniti
p2360
(I3
I23690
tp2361
sVnation
p2362
(I21
I47731
tp2363
sV55,000
p2364
(I1
I48125
tp2365
sVinterview
p2366
(I4
I30142
tp2367
sVunadjust
p2368
(I1
I61726
tp2369
sVtherebi
p2370
(I1
I44652
tp2371
sVhalf
p2372
(I6
I28150
tp2373
sVnot
p2374
(I70
I7488
tp2375
sVmolass
p2376
(I1
I28615
tp2377
sVnow
p2378
(I18
I23209
tp2379
sV4,000-strong
p2380
(I1
I32129
tp2381
sVdiscuss
p2382
(I3
I14315
tp2383
sVnor
p2384
(I1
I50627
tp2385
sVintroduct
p2386
(I3
I61884
tp2387
sV14.5
p2388
(I2
I8100
tp2389
sV14.4
p2390
(I1
I43042
tp2391
sVterm
p2392
(I15
I23276
tp2393
sVname
p2394
(I10
I25238
tp2395
sV24.4
p2396
(I1
I59740
tp2397
sVdrop
p2398
(I16
I30027
tp2399
sV24.2
p2400
(I2
I25162
tp2401
sVsepar
p2402
(I3
I46069
tp2403
sV22.6
p2404
(I2
I60598
tp2405
sVjanuari
p2406
(I35
I28702
tp2407
sVreintroduc
p2408
(I2
I1697
tp2409
sVstockhold
p2410
(I3
I40898
tp2411
sVbuyer
p2412
(I2
I55401
tp2413
sVreplac
p2414
(I4
I20665
tp2415
sVindividu
p2416
(I1
I23266
tp2417
sVreceipt
p2418
(I3
I48244
tp2419
sVcontinu
p2420
(I10
I10543
tp2421
sVec
p2422
(I8
I9426
tp2423
sV9,922,000
p2424
(I1
I57956
tp2425
sVshipown
p2426
(I1
I37472
tp2427
sVredistribut
p2428
(I1
I3848
tp2429
sVgencorp'
p2430
(I1
I62587
tp2431
sVsignificantli
p2432
(I3
I52164
tp2433
sVbegun
p2434
(I4
I46344
tp2435
sVyear
p2436
(I127
I7644
tp2437
sVdistributor
p2438
(I1
I54378
tp2439
sVet
p2440
(I1
I41277
tp2441
sVhappen
p2442
(I3
I36024
tp2443
sVdispos
p2444
(I1
I63152
tp2445
sV8.75
p2446
(I1
I45016
tp2447
sVcanada
p2448
(I11
I36698
tp2449
sV1.485
p2450
(I1
I33000
tp2451
sV3rd
p2452
(I3
I43866
tp2453
sVspace
p2454
(I2
I41725
tp2455
sVprofit
p2456
(I47
I8139
tp2457
sV92,552
p2458
(I1
I65002
tp2459
sVunderwrit
p2460
(I1
I23238
tp2461
sVbli
p2462
(I1
I36136
tp2463
sVdutch
p2464
(I4
I31297
tp2465
sV1.51
p2466
(I1
I43571
tp2467
sVastral
p2468
(I1
I58999
tp2469
sVsensor
p2470
(I1
I41949
tp2471
sVcorrect
p2472
(I2
I44013
tp2473
sVlag
p2474
(I1
I20264
tp2475
sVquito
p2476
(I1
I47336
tp2477
sVnipsco
p2478
(I1
I58249
tp2479
sVhull
p2480
(I1
I37229
tp2481
sVdomest
p2482
(I6
I40994
tp2483
sVmillion
p2484
(I1
I63831
tp2485
sVargu
p2486
(I2
I56212
tp2487
sVhectar
p2488
(I2
I58349
tp2489
sV4,131,000
p2490
(I1
I50056
tp2491
sVplea
p2492
(I1
I56436
tp2493
sVstate-bas
p2494
(I1
I65687
tp2495
sVhefti
p2496
(I1
I54665
tp2497
sVore
p2498
(I2
I49376
tp2499
sVcard
p2500
(I7
I44807
tp2501
sVcare
p2502
(I3
I40519
tp2503
sVreflect
p2504
(I8
I16263
tp2505
sVbritish
p2506
(I11
I27799
tp2507
sVmotion
p2508
(I1
I60706
tp2509
sVturn
p2510
(I2
I21517
tp2511
sV526,000
p2512
(I1
I49772
tp2513
sVplace
p2514
(I11
I14503
tp2515
sVgordon
p2516
(I1
I65956
tp2517
sVministri
p2518
(I6
I29155
tp2519
sVhalf-mln
p2520
(I1
I66575
tp2521
sVprincipl
p2522
(I6
I34780
tp2523
sVthink
p2524
(I1
I64614
tp2525
sVfirst
p2526
(I5
I6066
tp2527
sVorigin
p2528
(I2
I35395
tp2529
sV52
p2530
(I2
I58881
tp2531
sV621
p2532
(I1
I57432
tp2533
sVsuspend
p2534
(I1
I47209
tp2535
sVdirectli
p2536
(I1
I53009
tp2537
sV2,300,000
p2538
(I1
I45620
tp2539
sVquestion
p2540
(I2
I44913
tp2541
sVbeverag
p2542
(I1
I65936
tp2543
sVone
p2544
(I50
I322
tp2545
sVacquisit
p2546
(I24
I17710
tp2547
sV44-year-old
p2548
(I1
I66605
tp2549
sVvote
p2550
(I9
I40640
tp2551
sVdrove
p2552
(I1
I15517
tp2553
sVopen
p2554
(I3
I9471
tp2555
sVtomorrow
p2556
(I7
I4868
tp2557
sVsize
p2558
(I2
I52990
tp2559
sVsheep
p2560
(I1
I62100
tp2561
sVavail
p2562
(I7
I45190
tp2563
sVgiven
p2564
(I11
I27672
tp2565
sVarco
p2566
(I1
I57619
tp2567
sVsilent
p2568
(I1
I15469
tp2569
sVconvent
p2570
(I1
I37625
tp2571
sVlanka
p2572
(I1
I39706
tp2573
sVtrillion
p2574
(I1
I53500
tp2575
sV45,696
p2576
(I1
I63282
tp2577
sVplastic
p2578
(I1
I62418
tp2579
sVciti
p2580
(I5
I47874
tp2581
sVdemocrat-control
p2582
(I1
I61396
tp2583
sV1,847,000
p2584
(I1
I33554
tp2585
sVwhite
p2586
(I6
I28538
tp2587
sV1,924,000
p2588
(I1
I32873
tp2589
sVcite
p2590
(I2
I35540
tp2591
sV91.6
p2592
(I1
I64882
tp2593
sVcourier
p2594
(I1
I18166
tp2595
sVthat
p2596
(I100
I6228
tp2597
sVprovinc
p2598
(I1
I65876
tp2599
sVseason
p2600
(I4
I42416
tp2601
sVspecifi
p2602
(I1
I60332
tp2603
sVundertaken
p2604
(I1
I59058
tp2605
sVbroadcast
p2606
(I2
I34856
tp2607
sV28.9
p2608
(I1
I54587
tp2609
sVquak
p2610
(I1
I47259
tp2611
sV36,480,000
p2612
(I1
I30248
tp2613
sVholder
p2614
(I3
I54123
tp2615
sVthan
p2616
(I15
I10734
tp2617
sV28.6
p2618
(I1
I57995
tp2619
sV11
p2620
(I4
I32746
tp2621
sVwide
p2622
(I4
I34378
tp2623
sV13
p2624
(I3
I29655
tp2625
sV12
p2626
(I12
I1859
tp2627
sV15
p2628
(I19
I19723
tp2629
sV14
p2630
(I11
I22200
tp2631
sV17
p2632
(I5
I32634
tp2633
sV16
p2634
(I2
I43120
tp2635
sV19
p2636
(I5
I32002
tp2637
sVrival
p2638
(I1
I20283
tp2639
sVconglomer
p2640
(I2
I39348
tp2641
sVexampl
p2642
(I1
I65549
tp2643
sVbrown-forman
p2644
(I1
I0
tp2645
sVcomputer
p2646
(I1
I67683
tp2647
sVbalanc
p2648
(I5
I23005
tp2649
sVwere
p2650
(I48
I9890
tp2651
sVposit
p2652
(I4
I16749
tp2653
sVtractor
p2654
(I1
I33978
tp2655
sVseri
p2656
(I1
I31945
tp2657
sVand
p2658
(I477
I5598
tp2659
sVsao
p2660
(I1
I47921
tp2661
sVsan
p2662
(I1
I62803
tp2663
sVangel
p2664
(I1
I26778
tp2665
sVcraig
p2666
(I1
I59019
tp2667
sVpremier
p2668
(I1
I58576
tp2669
sVsag
p2670
(I1
I61100
tp2671
sVani
p2672
(I12
I2475
tp2673
sValleg
p2674
(I4
I9650
tp2675
sVprt
p2676
(I1
I52702
tp2677
sVsay
p2678
(I15
I23943
tp2679
sVpaulo
p2680
(I1
I47949
tp2681
sVrent
p2682
(I1
I64892
tp2683
sV10-year
p2684
(I1
I38671
tp2685
sVsaw
p2686
(I2
I38780
tp2687
sVamort
p2688
(I2
I52004
tp2689
sVnkkt.tok
p2690
(I1
I58526
tp2691
sVengin
p2692
(I2
I43431
tp2693
sVsoutheast
p2694
(I3
I44234
tp2695
sVinfight
p2696
(I1
I61149
tp2697
sVnote
p2698
(I31
I7767
tp2699
sVjefferson
p2700
(I1
I43316
tp2701
sVtake
p2702
(I22
I27453
tp2703
sVexploratori
p2704
(I1
I41561
tp2705
sV1,650
p2706
(I1
I62259
tp2707
sVwci
p2708
(I1
I67803
tp2709
sV600,000
p2710
(I1
I50881
tp2711
sVchannel
p2712
(I1
I49258
tp2713
sV200
p2714
(I2
I23344
tp2715
sVbegin
p2716
(I6
I18699
tp2717
sVincorpor
p2718
(I2
I39367
tp2719
sVnormal
p2720
(I2
I37568
tp2721
sVbuffer
p2722
(I3
I45951
tp2723
sVprice
p2724
(I90
I9841
tp2725
sVgencorp
p2726
(I16
I34617
tp2727
sVpaid
p2728
(I7
I20303
tp2729
sVstate-own
p2730
(I2
I48135
tp2731
sVrender
p2732
(I1
I62498
tp2733
sVfcc
p2734
(I1
I35286
tp2735
sVdrummond
p2736
(I1
I65966
tp2737
sVtract
p2738
(I1
I57255
tp2739
sVamerica
p2740
(I2
I33723
tp2741
sVcommerzbank
p2742
(I1
I39097
tp2743
sVlarner
p2744
(I1
I37184
tp2745
sVaxp
p2746
(I1
I12696
tp2747
sV8,507
p2748
(I1
I41531
tp2749
sVrenam
p2750
(I1
I25457
tp2751
sV1,500,000
p2752
(I1
I67334
tp2753
sVlater
p2754
(I4
I20684
tp2755
sVsale
p2756
(I40
I7117
tp2757
sVquantiti
p2758
(I1
I66645
tp2759
sVmeanwhil
p2760
(I4
I32177
tp2761
sVb.c
p2762
(I1
I67863
tp2763
sVcrank
p2764
(I1
I66076
tp2765
sVsenior
p2766
(I2
I48429
tp2767
sV30,000
p2768
(I2
I37645
tp2769
sVsteadi
p2770
(I1
I44728
tp2771
sV185.9
p2772
(I1
I54477
tp2773
sV614,000
p2774
(I1
I50016
tp2775
sVevent
p2776
(I2
I55292
tp2777
sV102.9
p2778
(I1
I45454
tp2779
sVsurplus
p2780
(I1
I66465
tp2781
sVshow
p2782
(I10
I39289
tp2783
sVgerman
p2784
(I1
I39261
tp2785
sVso-cal
p2786
(I2
I12117
tp2787
sVcheap
p2788
(I1
I38963
tp2789
sVmooni
p2790
(I1
I67165
tp2791
sVsouthwestern
p2792
(I1
I62199
tp2793
sVsponsorship
p2794
(I1
I45375
tp2795
sV285,000
p2796
(I1
I50891
tp2797
sVground
p2798
(I2
I20522
tp2799
sVonli
p2800
(I7
I40065
tp2801
sVgulf
p2802
(I4
I4975
tp2803
sVtreasuri
p2804
(I4
I54685
tp2805
sVtransact
p2806
(I17
I6586
tp2807
sVdick
p2808
(I1
I22956
tp2809
sVactiv
p2810
(I3
I55077
tp2811
sVpump
p2812
(I2
I41114
tp2813
sVwood
p2814
(I1
I52819
tp2815
sVblack
p2816
(I1
I67554
tp2817
sVnvid
p2818
(I1
I43847
tp2819
sVstabilis
p2820
(I1
I66725
tp2821
sVwool
p2822
(I1
I34519
tp2823
sVover
p2824
(I30
I21327
tp2825
sV44.8
p2826
(I1
I7737
tp2827
sVcarolina
p2828
(I1
I48588
tp2829
sVnearli
p2830
(I2
I47024
tp2831
sVvariou
p2832
(I4
I37396
tp2833
sVget
p2834
(I4
I19449
tp2835
sVcannon
p2836
(I3
I45036
tp2837
sVcontractu
p2838
(I1
I65331
tp2839
sVscurry-rainbow
p2840
(I1
I41764
tp2841
sVmedia
p2842
(I1
I67813
tp2843
sVoutlet
p2844
(I1
I49464
tp2845
sVchemic
p2846
(I4
I34256
tp2847
sVpetroleum-bas
p2848
(I1
I61696
tp2849
sV251
p2850
(I1
I63212
tp2851
sVrequir
p2852
(I8
I44498
tp2853
sVprime
p2854
(I6
I25785
tp2855
sVsideway
p2856
(I1
I54978
tp2857
sValuminum
p2858
(I2
I33713
tp2859
sV6.6
p2860
(I1
I61765
tp2861
sVhostil
p2862
(I1
I62329
tp2863
sVmalaysian
p2864
(I1
I39765
tp2865
sVborrow
p2866
(I1
I38301
tp2867
sVyield
p2868
(I9
I38168
tp2869
sV2,631,000
p2870
(I1
I57906
tp2871
sVirrespect
p2872
(I1
I65529
tp2873
sVtallow
p2874
(I1
I57106
tp2875
sVtelecommun
p2876
(I1
I43276
tp2877
sVwhere
p2878
(I5
I16768
tp2879
sV6.2
p2880
(I1
I36442
tp2881
sVsalomon
p2882
(I1
I55331
tp2883
sVdioxin-rel
p2884
(I1
I58025
tp2885
sVnoth
p2886
(I1
I66455
tp2887
sVmaximum
p2888
(I1
I63172
tp2889
sVinterprovinci
p2890
(I1
I41735
tp2891
sVendotron
p2892
(I1
I54262
tp2893
sVprogress
p2894
(I7
I43355
tp2895
sVcalendar
p2896
(I2
I55488
tp2897
sVreiter
p2898
(I1
I62398
tp2899
sVkaunda
p2900
(I1
I49444
tp2901
sVconcern
p2902
(I5
I16136
tp2903
sV4.30
p2904
(I1
I59127
tp2905
sVplummet
p2906
(I1
I59385
tp2907
sVtelevis
p2908
(I2
I34942
tp2909
sVinnov
p2910
(I1
I27151
tp2911
sVreview
p2912
(I4
I20254
tp2913
sVmth
p2914
(I5
I937
tp2915
sVforecast
p2916
(I9
I23420
tp2917
sVestat
p2918
(I4
I30377
tp2919
sVvolatil
p2920
(I1
I55731
tp2921
sVbetween
p2922
(I16
I10252
tp2923
sVherbal
p2924
(I1
I51369
tp2925
sVimport
p2926
(I24
I11409
tp2927
sVbiogen
p2928
(I1
I62923
tp2929
sVacross
p2930
(I2
I37827
tp2931
sVaugust
p2932
(I5
I10297
tp2933
sVparent
p2934
(I1
I37307
tp2935
sV139.46
p2936
(I1
I56896
tp2937
sVjp
p2938
(I1
I53403
tp2939
sVdome
p2940
(I1
I33127
tp2941
sVsupermarket
p2942
(I1
I58891
tp2943
sVtacit
p2944
(I1
I61246
tp2945
sVshortag
p2946
(I5
I23392
tp2947
sVcome
p2948
(I6
I54911
tp2949
sVsumitomo
p2950
(I1
I62219
tp2951
sVbeliv
p2952
(I1
I21590
tp2953
sVfit
p2954
(I1
I64644
tp2955
sVlibya
p2956
(I1
I60293
tp2957
sVaomi
p2958
(I1
I51008
tp2959
sVtrader
p2960
(I10
I23880
tp2961
sV49,000
p2962
(I1
I26008
tp2963
sV175,476
p2964
(I1
I54182
tp2965
sVcontract
p2966
(I6
I24274
tp2967
sVbrierley
p2968
(I1
I58969
tp2969
sV4,835,000
p2970
(I1
I45474
tp2971
sVmani
p2972
(I7
I35685
tp2973
sVrailway
p2974
(I1
I49209
tp2975
sVhvi
p2976
(I1
I65052
tp2977
sVamong
p2978
(I6
I29200
tp2979
sVacceler
p2980
(I4
I35863
tp2981
sVchemlawn'
p2982
(I1
I54113
tp2983
sV50-50
p2984
(I1
I44349
tp2985
sVperiod
p2986
(I20
I24648
tp2987
sVinsist
p2988
(I2
I45649
tp2989
sV50,000
p2990
(I3
I37655
tp2991
sV60
p2992
(I6
I22377
tp2993
sV61
p2994
(I1
I54438
tp2995
sVexploit
p2996
(I1
I45277
tp2997
sV63
p2998
(I1
I42768
tp2999
sVdiffer
p3000
(I1
I42145
tp3001
sValli
p3002
(I1
I65211
tp3003
sV66
p3004
(I1
I994
tp3005
sV67
p3006
(I2
I27789
tp3007
sV68
p3008
(I1
I42320
tp3009
sV69
p3010
(I2
I47636
tp3011
sV169,275
p3012
(I1
I43983
tp3013
sVtwo-year
p3014
(I1
I54792
tp3015
sVdamag
p3016
(I1
I57373
tp3017
sVultim
p3018
(I1
I14373
tp3019
sVstretch
p3020
(I1
I58378
tp3021
sVwest
p3022
(I6
I28911
tp3023
sV16.5
p3024
(I1
I57946
tp3025
sVmark
p3026
(I2
I46373
tp3027
sVhutton
p3028
(I12
I17929
tp3029
sVdiseas
p3030
(I1
I39599
tp3031
sVralli
p3032
(I2
I47864
tp3033
sV506
p3034
(I1
I43533
tp3035
sVsurplu
p3036
(I7
I52125
tp3037
sV500
p3038
(I2
I23582
tp3039
sV501
p3040
(I1
I60736
tp3041
sV636
p3042
(I1
I41492
tp3043
sV3.9737
p3044
(I1
I54232
tp3045
sVaero
p3046
(I1
I42758
tp3047
sVone-third
p3048
(I1
I61706
tp3049
sVwake
p3050
(I1
I43620
tp3051
sVaviat
p3052
(I1
I42884
tp3053
sVyugoslav
p3054
(I1
I64842
tp3055
sVformer
p3056
(I2
I56484
tp3057
sVthose
p3058
(I5
I41162
tp3059
sVcase
p3060
(I4
I12426
tp3061
sVmerril
p3062
(I1
I54772
tp3063
sVvenezulean
p3064
(I1
I44603
tp3065
sVthese
p3066
(I9
I37492
tp3067
sVslumber
p3068
(I1
I54724
tp3069
sVmount
p3070
(I1
I60845
tp3071
sV3.1
p3072
(I1
I67065
tp3073
sVcash
p3074
(I22
I16458
tp3075
sVimperi
p3076
(I2
I34246
tp3077
sVn't
p3078
(I1
I64634
tp3079
sVshortfal
p3080
(I2
I3714
tp3081
sVtrico
p3082
(I1
I41133
tp3083
sV170,800
p3084
(I1
I58822
tp3085
sVsubsist
p3086
(I1
I57481
tp3087
sVsorghum
p3088
(I3
I26018
tp3089
sV1,768,000
p3090
(I1
I50086
tp3091
sVrefineri
p3092
(I1
I44429
tp3093
sV588.5
p3094
(I1
I54537
tp3095
sVadvantag
p3096
(I3
I27472
tp3097
sV17/64
p3098
(I1
I41413
tp3099
sVworri
p3100
(I1
I27189
tp3101
sVelectrolyt
p3102
(I1
I64812
tp3103
sVmcdermott
p3104
(I1
I48831
tp3105
sVwarehous
p3106
(I1
I66875
tp3107
sV2,500,000
p3108
(I1
I67364
tp3109
sV13.6
p3110
(I1
I7747
tp3111
sV13.4
p3112
(I1
I52380
tp3113
sV13.1
p3114
(I1
I43062
tp3115
sVtamborapa
p3116
(I1
I62873
tp3117
sVdevelop
p3118
(I14
I26721
tp3119
sV11.9
p3120
(I1
I58655
tp3121
sVauthor
p3122
(I7
I12489
tp3123
sV11.4
p3124
(I2
I42953
tp3125
sVpay
p3126
(I19
I18533
tp3127
sVmedic
p3128
(I3
I59918
tp3129
sV11.0
p3130
(I1
I8110
tp3131
sVeconom
p3132
(I13
I44681
tp3133
sVsame
p3134
(I8
I10588
tp3135
sV11.3
p3136
(I1
I59246
tp3137
sV50,000-tonn
p3138
(I1
I65737
tp3139
sV17.3
p3140
(I1
I36146
tp3141
sV17.1
p3142
(I1
I63751
tp3143
sV287,600
p3144
(I1
I58852
tp3145
sV17.9
p3146
(I1
I53193
tp3147
sVweek
p3148
(I21
I14557
tp3149
sVjeffrey
p3150
(I1
I17227
tp3151
sVoil
p3152
(I50
I7869
tp3153
sVpari
p3154
(I1
I67454
tp3155
sVecuadorean
p3156
(I2
I47346
tp3157
sVrainbow
p3158
(I9
I53917
tp3159
sV10-25
p3160
(I1
I64485
tp3161
sVassist
p3162
(I4
I34559
tp3163
sVdirector
p3164
(I3
I56503
tp3165
sVcapabl
p3166
(I1
I41667
tp3167
sVfruit
p3168
(I1
I51087
tp3169
sVultramar
p3170
(I1
I53946
tp3171
sVimprov
p3172
(I12
I13042
tp3173
sVextern
p3174
(I1
I14234
tp3175
sVpostpon
p3176
(I2
I4654
tp3177
sVsumita
p3178
(I3
I60047
tp3179
sVdrain
p3180
(I2
I46497
tp3181
sVmoder
p3182
(I2
I55702
tp3183
sVpennsylvania
p3184
(I3
I33335
tp3185
sVpachapidiana
p3186
(I1
I62883
tp3187
sVvacant
p3188
(I1
I17311
tp3189
sV158,000
p3190
(I1
I48646
tp3191
sVwithout
p3192
(I3
I9379
tp3193
sVrelief
p3194
(I1
I52721
tp3195
sVbodi
p3196
(I1
I61446
tp3197
sVpa.
p3198
(I3
I33892
tp3199
sV135.6
p3200
(I1
I53313
tp3201
sV217
p3202
(I1
I34760
tp3203
sVexecut
p3204
(I12
I21730
tp3205
sVwale
p3206
(I2
I65559
tp3207
sVmoney
p3208
(I12
I23373
tp3209
sVrest
p3210
(I1
I18718
tp3211
sVweekli
p3212
(I1
I54852
tp3213
sVkill
p3214
(I1
I47423
tp3215
sVkilo
p3216
(I5
I38089
tp3217
sVflavor
p3218
(I1
I38651
tp3219
sVconcentr
p3220
(I3
I58724
tp3221
sVversu
p3222
(I5
I27894
tp3223
sVdeath
p3224
(I1
I37549
tp3225
sVeurop
p3226
(I1
I45287
tp3227
sVny
p3228
(I1
I59276
tp3229
sVeckenfeld
p3230
(I1
I17030
tp3231
sVrose
p3232
(I25
I28634
tp3233
sV1-3/4
p3234
(I1
I54320
tp3235
sVlittl
p3236
(I8
I17489
tp3237
sV1,800,000
p3238
(I1
I32883
tp3239
sV789
p3240
(I1
I65072
tp3241
sVpile
p3242
(I1
I49910
tp3243
sVtreatment
p3244
(I1
I62833
tp3245
sVexercis
p3246
(I1
I23199
tp3247
sV4,127,000
p3248
(I1
I45464
tp3249
sVdisrupt
p3250
(I1
I49871
tp3251
sVpill
p3252
(I1
I62636
tp3253
sV80,000
p3254
(I1
I56182
tp3255
sVfurnac
p3256
(I1
I58457
tp3257
sVreal
p3258
(I2
I30367
tp3259
sV3.69
p3260
(I1
I63821
tp3261
sVaround
p3262
(I16
I21571
tp3263
sV21p
p3264
(I1
I37856
tp3265
sVzayr
p3266
(I1
I30209
tp3267
sV3.66
p3268
(I1
I59117
tp3269
sVoct
p3270
(I1
I64416
tp3271
sV56.6
p3272
(I1
I63601
tp3273
sV0.58
p3274
(I1
I59395
tp3275
sV1.02
p3276
(I1
I42923
tp3277
sVtraffic
p3278
(I1
I64743
tp3279
sVdetract
p3280
(I1
I38611
tp3281
sVworld
p3282
(I15
I24124
tp3283
sVall-parti
p3284
(I1
I42194
tp3285
sVvictori
p3286
(I1
I57304
tp3287
sV131.2
p3288
(I1
I27739
tp3289
sVyear-on
p3290
(I1
I46748
tp3291
sVqtli
p3292
(I8
I22098
tp3293
sVduth
p3294
(I1
I66166
tp3295
sV49.70
p3296
(I1
I38128
tp3297
sVvoluntarili
p3298
(I1
I64011
tp3299
sV116.8
p3300
(I1
I59226
tp3301
sV1,306,875
p3302
(I1
I53767
tp3303
sVbenefit
p3304
(I9
I32913
tp3305
sV133.4
p3306
(I1
I53303
tp3307
sVeither
p3308
(I1
I67793
tp3309
sVbgenf
p3310
(I1
I62933
tp3311
sVoutput
p3312
(I16
I28397
tp3313
sVdownward
p3314
(I4
I45075
tp3315
sVrealiti
p3316
(I1
I61526
tp3317
sVmanag
p3318
(I22
I17107
tp3319
sV360.0
p3320
(I1
I30591
tp3321
sVfulfil
p3322
(I1
I55839
tp3323
sVdeduct
p3324
(I1
I36264
tp3325
sVsharehold
p3326
(I21
I18902
tp3327
sVmatur
p3328
(I3
I55225
tp3329
sV8,807,000
p3330
(I1
I57076
tp3331
sVsatisfactori
p3332
(I1
I43266
tp3333
sVweek'
p3334
(I1
I55195
tp3335
sVjewelleri
p3336
(I1
I64337
tp3337
sV8,626,000
p3338
(I1
I33584
tp3339
sVguillermo
p3340
(I1
I30084
tp3341
sV985,000
p3342
(I1
I43167
tp3343
sVfreez
p3344
(I1
I47403
tp3345
sVslice
p3346
(I1
I54675
tp3347
sVconfirm
p3348
(I2
I17606
tp3349
sVnoon
p3350
(I1
I8387
tp3351
sVkml
p3352
(I1
I32785
tp3353
sVdefinit
p3354
(I3
I50146
tp3355
sVlegal
p3356
(I2
I56133
tp3357
sVflow
p3358
(I5
I41345
tp3359
sVmoor
p3360
(I1
I60273
tp3361
sVdeficit
p3362
(I5
I55791
tp3363
sVnotabl
p3364
(I1
I65667
tp3365
sVrefer
p3366
(I3
I49493
tp3367
sV14,289
p3368
(I1
I63701
tp3369
sVarabia
p3370
(I1
I67225
tp3371
sVwestinghous
p3372
(I1
I35136
tp3373
sVwheat
p3374
(I29
I42484
tp3375
sVcompris
p3376
(I4
I47073
tp3377
sV386.0
p3378
(I1
I43022
tp3379
sVbarrel-per-day
p3380
(I1
I44389
tp3381
sVsixth
p3382
(I1
I63043
tp3383
sVscarc
p3384
(I1
I51293
tp3385
sVration
p3386
(I4
I50417
tp3387
sVlocal
p3388
(I1
I56976
tp3389
sVbroker
p3390
(I1
I36621
tp3391
sVslaughter
p3392
(I1
I64972
tp3393
sVbroken
p3394
(I1
I51612
tp3395
sVgraaf
p3396
(I1
I31425
tp3397
sVfulli
p3398
(I3
I16209
tp3399
sVthailand
p3400
(I1
I46039
tp3401
sVwclb
p3402
(I1
I66895
tp3403
sV37-1/2
p3404
(I1
I36878
tp3405
sVstandstil
p3406
(I1
I36592
tp3407
sVsrb
p3408
(I1
I41783
tp3409
sVon
p3410
(I164
I2691
tp3411
sVcentral
p3412
(I8
I46401
tp3413
sVstant
p3414
(I1
I20177
tp3415
sVsrd
p3416
(I1
I60213
tp3417
sVof
p3418
(I695
I4077
tp3419
sVsri
p3420
(I1
I39696
tp3421
sVgreater
p3422
(I4
I60095
tp3423
sVacr
p3424
(I3
I50360
tp3425
sVdegre
p3426
(I1
I41384
tp3427
sVintens
p3428
(I1
I57787
tp3429
sVstand
p3430
(I6
I17416
tp3431
sVact
p3432
(I1
I51037
tp3433
sVgreet
p3434
(I3
I67305
tp3435
sVindustri
p3436
(I24
I10039
tp3437
sVemployers'
p3438
(I1
I42271
tp3439
sVor
p3440
(I52
I25795
tp3441
sVroad
p3442
(I1
I56690
tp3443
sV33.5
p3444
(I1
I28130
tp3445
sVoutlook
p3446
(I2
I54636
tp3447
sVeffici
p3448
(I1
I65371
tp3449
sVlower-qu
p3450
(I1
I65401
tp3451
sV8.59
p3452
(I1
I51213
tp3453
sV497,452
p3454
(I1
I53757
tp3455
sVcompos
p3456
(I1
I60223
tp3457
sVtriniti
p3458
(I1
I44748
tp3459
sV148,000
p3460
(I1
I64159
tp3461
sVlenz
p3462
(I1
I48224
tp3463
sVneil
p3464
(I1
I59611
tp3465
sV7,492,000
p3466
(I1
I43187
tp3467
sVyour
p3468
(I2
I38982
tp3469
sVbreath
p3470
(I1
I54753
tp3471
sV7.3
p3472
(I1
I64922
tp3473
sVarea
p3474
(I9
I50321
tp3475
sVdutch/shel
p3476
(I1
I41793
tp3477
sVthere
p3478
(I14
I14748
tp3479
sVphiladelphia
p3480
(I1
I67623
tp3481
sV10,355,728
p3482
(I1
I53393
tp3483
sVstart
p3484
(I13
I31983
tp3485
sVlow
p3486
(I3
I47356
tp3487
sVbrazilian
p3488
(I3
I47702
tp3489
sVsubmiss
p3490
(I1
I65341
tp3491
sVvalley
p3492
(I1
I50716
tp3493
sV3,034,010
p3494
(I1
I54192
tp3495
sVstrict
p3496
(I1
I65311
tp3497
sVg-5
p3498
(I1
I67424
tp3499
sV4.42
p3500
(I1
I59107
tp3501
sVlasmo
p3502
(I5
I41258
tp3503
sVbottl
p3504
(I1
I67833
tp3505
sV750
p3506
(I1
I55810
tp3507
sVartg
p3508
(I1
I67663
tp3509
sVauspici
p3510
(I1
I54940
tp3511
sV101.9
p3512
(I1
I63631
tp3513
sVcabinet
p3514
(I1
I47530
tp3515
sV103.4
p3516
(I1
I62169
tp3517
sVagl
p3518
(I1
I66955
tp3519
sV40,000
p3520
(I1
I42426
tp3521
sVe
(I1
I42310
tp3522
sVcourt-ord
p3523
(I1
I57393
tp3524
sVrealli
p3525
(I1
I64268
tp3526
sVwith
p3527
(I95
I2068
tp3528
sVlonger
p3529
(I2
I11158
tp3530
sVrush
p3531
(I1
I38311
tp3532
sV4,700,000
p3533
(I1
I30650
tp3534
sVpossibl
p3535
(I8
I22787
tp3536
sVdefault
p3537
(I1
I52243
tp3538
sVelectromagnet
p3539
(I1
I45317
tp3540
sVnearest
p3541
(I1
I65519
tp3542
sVmonopoli
p3543
(I2
I56074
tp3544
sV463,000
p3545
(I1
I49762
tp3546
sVconnect
p3547
(I1
I67673
tp3548
sVaa
p3549
(I1
I33742
tp3550
sVad
p3551
(I31
I6165
tp3552
sVcreat
p3553
(I5
I17340
tp3554
sVqtrli
p3555
(I3
I52624
tp3556
sVai
p3557
(I1
I56367
tp3558
sVcertain
p3559
(I9
I7279
tp3560
sVal
p3561
(I1
I41305
tp3562
sVdeep
p3563
(I1
I41551
tp3564
sVan
p3565
(I65
I3052
tp3566
sVgovernment'
p3567
(I1
I47826
tp3568
sVbritain
p3569
(I8
I28979
tp3570
sVdecreas
p3571
(I2
I64456
tp3572
sVat
p3573
(I127
I8368
tp3574
sVfile
p3575
(I6
I35405
tp3576
sVcultur
p3577
(I1
I57491
tp3578
sVgactz
p3579
(I1
I64952
tp3580
sVproport
p3581
(I3
I29674
tp3582
sVportland
p3583
(I1
I65627
tp3584
sVc.
p3585
(I1
I63531
tp3586
sVagain
p3587
(I2
I58220
tp3588
sVportug
p3589
(I4
I28673
tp3590
sV4.1
p3591
(I1
I66156
tp3592
sV4.0
p3593
(I1
I46276
tp3594
sVwant
p3595
(I3
I61061
tp3596
sV4.2
p3597
(I3
I57422
tp3598
sV79
p3599
(I1
I49743
tp3600
sVextract
p3601
(I1
I62853
tp3602
sV4.9
p3603
(I1
I53995
tp3604
sV4.8
p3605
(I1
I50302
tp3606
sVreduct
p3607
(I3
I30152
tp3608
sVrubber
p3609
(I4
I39570
tp3610
sVfield
p3611
(I5
I52692
tp3612
sVvalid
p3613
(I1
I57206
tp3614
sVcompet
p3615
(I3
I34913
tp3616
sVthorugh
p3617
(I1
I63272
tp3618
sVyou
p3619
(I2
I62548
tp3620
sVchung-jung
p3621
(I1
I63891
tp3622
sVthousand
p3623
(I1
I64982
tp3624
sVpoor
p3625
(I2
I65827
tp3626
sVtrip
p3627
(I1
I61296
tp3628
sVcot
p3629
(I1
I59641
tp3630
sV4,000
p3631
(I1
I29088
tp3632
sVcongress
p3633
(I2
I58606
tp3634
sVnote:1986
p3635
(I3
I42827
tp3636
sVsartaj
p3637
(I1
I66415
tp3638
sVdrift
p3639
(I1
I54968
tp3640
sV4,572,000
p3641
(I1
I52213
tp3642
sViomg
p3643
(I1
I52154
tp3644
sVpush
p3645
(I1
I39736
tp3646
sV3,324,000
p3647
(I1
I50126
tp3648
sVkingsley
p3649
(I1
I65856
tp3650
sVqueensland
p3651
(I2
I65598
tp3652
sVkittiwak
p3653
(I1
I53173
tp3654
sVfiscal
p3655
(I7
I30396
tp3656
sV4,255,000
p3657
(I1
I59681
tp3658
sV409.5
p3659
(I1
I63372
tp3660
sVcoren
p3661
(I1
I39666
tp3662
sVsuprem
p3663
(I2
I57236
tp3664
sVinvest
p3665
(I17
I22532
tp3666
sVcpc
p3667
(I1
I40440
tp3668
sVzimbabw
p3669
(I5
I49298
tp3670
sVrepay
p3671
(I1
I63501
tp3672
sVcordero
p3673
(I1
I47140
tp3674
sVpotenti
p3675
(I4
I51700
tp3676
sVdyer
p3677
(I1
I34435
tp3678
sVmanaspa
p3679
(I1
I46019
tp3680
sV3,202,355
p3681
(I1
I59997
tp3682
sVall
p3683
(I26
I12280
tp3684
sVconsider
p3685
(I3
I13427
tp3686
sVpti
p3687
(I1
I22860
tp3688
sVequiticorp
p3689
(I1
I53927
tp3690
sVlack
p3691
(I2
I49920
tp3692
sVdollar
p3693
(I11
I55018
tp3694
sVmonth
p3695
(I40
I1878
tp3696
sV96,043
p3697
(I1
I65092
tp3698
sVunrest
p3699
(I2
I47788
tp3700
sVatlant
p3701
(I1
I50185
tp3702
sVdisc
p3703
(I1
I55937
tp3704
sVdebartolo
p3705
(I1
I65181
tp3706
sVzinc
p3707
(I1
I36708
tp3708
sVfollow
p3709
(I15
I8556
tp3710
sVmerchandis
p3711
(I1
I61913
tp3712
sVsettlement
p3713
(I3
I30756
tp3714
sVmne
p3715
(I1
I33257
tp3716
sVscr
p3717
(I1
I53263
tp3718
sVgriffin
p3719
(I1
I56986
tp3720
sVwmx
p3721
(I1
I54034
tp3722
sVyasuhiro
p3723
(I1
I60806
tp3724
sVtx
p3725
(I1
I57669
tp3726
sVtv
p3727
(I1
I34690
tp3728
sVflexibl
p3729
(I1
I63182
tp3730
sVthursday
p3731
(I7
I15488
tp3732
sVspirit
p3733
(I1
I66036
tp3734
sVto
p3735
(I591
I1082
tp3736
sVtl
p3737
(I1
I67783
tp3738
sVprogram
p3739
(I8
I35816
tp3740
sVpresent
p3741
(I2
I1110
tp3742
sV1,019,000
p3743
(I1
I43139
tp3744
sValberta
p3745
(I1
I45247
tp3746
sVsustain
p3747
(I1
I41686
tp3748
sVneglig
p3749
(I1
I37731
tp3750
sVrob
p3751
(I1
I61159
tp3752
sVintroduc
p3753
(I1
I66625
tp3754
sVta
p3755
(I2
I22641
tp3756
sVglobal
p3757
(I1
I17809
tp3758
sVshipment
p3759
(I7
I24216
tp3760
sVfar
p3761
(I1
I38273
tp3762
sV1,500
p3763
(I1
I57136
tp3764
sVfat
p3765
(I1
I25775
tp3766
sVutil
p3767
(I3
I58124
tp3768
sVcandid
p3769
(I1
I51515
tp3770
sVfan
p3771
(I1
I51341
tp3772
sVfam
p3773
(I1
I8041
tp3774
sVveri
p3775
(I6
I21618
tp3776
sVnsw
p3777
(I1
I65569
tp3778
sVunderperform
p3779
(I1
I8320
tp3780
sVdampen
p3781
(I1
I64179
tp3782
sVharri
p3783
(I1
I55604
tp3784
sV--
p3785
(I6
I45718
tp3786
sVthree-for-on
p3787
(I3
I45573
tp3788
sVamend
p3789
(I1
I54083
tp3790
sVadjust
p3791
(I14
I7415
tp3792
sVrepurchas
p3793
(I1
I46661
tp3794
sVsaudi
p3795
(I4
I46117
tp3796
sVlessen
p3797
(I1
I65906
tp3798
sVsmall
p3799
(I3
I52980
tp3800
sVdamper
p3801
(I1
I64189
tp3802
sV371,064
p3803
(I1
I67743
tp3804
sV3.18
p3805
(I1
I53717
tp3806
sVenterpris
p3807
(I6
I37268
tp3808
sVtel
p3809
(I1
I32942
tp3810
sVedt
p3811
(I1
I54103
tp3812
sV3.11
p3813
(I1
I66745
tp3814
sV90.3
p3815
(I1
I42982
tp3816
sV90.5
p3817
(I1
I58005
tp3818
sV190
p3819
(I1
I44458
tp3820
sV3.17
p3821
(I1
I28892
tp3822
sVpast
p3823
(I5
I20322
tp3824
sVzero
p3825
(I1
I10141
tp3826
sV10.45
p3827
(I1
I48311
tp3828
sVdesign
p3829
(I8
I37759
tp3830
sVquebec
p3831
(I2
I42330
tp3832
sVpass
p3833
(I4
I25871
tp3834
sV25-year
p3835
(I1
I44573
tp3836
sVfurther
p3837
(I9
I40103
tp3838
sVsbci
p3839
(I1
I38750
tp3840
sVnon-exect
p3841
(I1
I60233
tp3842
sV96.0
p3843
(I1
I42963
tp3844
sVserv
p3845
(I1
I63013
tp3846
sVdeleg
p3847
(I4
I2896
tp3848
sVstood
p3849
(I3
I37974
tp3850
sVbarrier
p3851
(I1
I51602
tp3852
sVsum
p3853
(I1
I64753
tp3854
sVmini-refund
p3855
(I1
I54646
tp3856
sVabl
p3857
(I4
I43384
tp3858
sVbrief
p3859
(I1
I51622
tp3860
sVkaltenbach
p3861
(I1
I48399
tp3862
sVdisench
p3863
(I1
I59415
tp3864
sVundevelop
p3865
(I1
I53144
tp3866
sVconsecut
p3867
(I3
I52653
tp3868
sV191.5
p3869
(I1
I43777
tp3870
sVmicrochip
p3871
(I1
I61051
tp3872
sVpublic
p3873
(I9
I15076
tp3874
sVmovement
p3875
(I1
I49890
tp3876
sVpre-audit
p3877
(I1
I64783
tp3878
sVfull
p3879
(I12
I8982
tp3880
sVthemselv
p3881
(I1
I42155
tp3882
sVmull
p3883
(I1
I18392
tp3884
sVchristi
p3885
(I1
I44409
tp3886
sVpacif
p3887
(I11
I26177
tp3888
sV5.4
p3889
(I1
I48880
tp3890
sV12.41
p3891
(I1
I28785
tp3892
sVexcess
p3893
(I2
I51843
tp3894
sVhigher-yield
p3895
(I1
I55381
tp3896
sVmethod
p3897
(I2
I51994
tp3898
sVstrong
p3899
(I2
I45859
tp3900
sVmodifi
p3901
(I1
I52272
tp3902
sVvalu
p3903
(I14
I16317
tp3904
sV2,972,000
p3905
(I1
I59157
tp3906
sVuphold
p3907
(I1
I60656
tp3908
sVahead
p3909
(I2
I46079
tp3910
sVtwelve-day
p3911
(I1
I66186
tp3912
sVcollater
p3913
(I1
I30824
tp3914
sVprior
p3915
(I14
I22127
tp3916
sVamount
p3917
(I10
I19665
tp3918
sVnavistar
p3919
(I1
I59435
tp3920
sVsocial
p3921
(I1
I31342
tp3922
sVaction
p3923
(I11
I13328
tp3924
sVnarrow
p3925
(I1
I54988
tp3926
sVmedicin
p3927
(I1
I51379
tp3928
sVvia
p3929
(I3
I26120
tp3930
sVdepart
p3931
(I17
I25429
tp3932
sVdeclin
p3933
(I13
I26614
tp3934
sVpanamanian
p3935
(I1
I48958
tp3936
sVafrica
p3937
(I4
I49036
tp3938
sVask
p3939
(I6
I39978
tp3940
sVbest/dsl
p3941
(I1
I66016
tp3942
sVvit
p3943
(I1
I63671
tp3944
sVrko
p3945
(I1
I34710
tp3946
sVselect
p3947
(I1
I25512
tp3948
sVdonaldson
p3949
(I1
I33276
tp3950
sVproceed
p3951
(I7
I31898
tp3952
sVenliven
p3953
(I1
I55468
tp3954
sVliber
p3955
(I1
I61336
tp3956
sVinjuri
p3957
(I1
I57531
tp3958
sVpetroleum
p3959
(I11
I7615
tp3960
sVtwo
p3961
(I37
I13913
tp3962
sVresciss
p3963
(I1
I30737
tp3964
sVanger
p3965
(I1
I60796
tp3966
sVmorn
p3967
(I3
I8705
tp3968
sVoffshor
p3969
(I2
I52849
tp3970
sV6
(I5
I26206
tp3971
sVtaken
p3972
(I3
I8658
tp3973
sVincid
p3974
(I1
I67534
tp3975
sVmore
p3976
(I20
I10715
tp3977
sVflat
p3978
(I2
I26817
tp3979
sVisrael
p3980
(I3
I28227
tp3981
sVpagurian
p3982
(I1
I52282
tp3983
sVdesir
p3984
(I1
I59087
tp3985
sVhockin
p3986
(I1
I44836
tp3987
sVflag
p3988
(I1
I57126
tp3989
sV1,930,400
p3990
(I1
I57036
tp3991
sVexpedit
p3992
(I1
I60362
tp3993
sVaris
p3994
(I2
I30814
tp3995
sVknown
p3996
(I3
I37082
tp3997
sVguin.l
p3998
(I1
I65926
tp3999
sVcompani
p4000
(I123
I7089
tp4001
sVwor-tv
p4002
(I1
I35296
tp4003
sVtown
p4004
(I1
I62793
tp4005
sV258.7
p4006
(I1
I59720
tp4007
sVhour
p4008
(I1
I8823
tp4009
sVhous
p4010
(I5
I42340
tp4011
sVoutlin
p4012
(I1
I61476
tp4013
sVtwinned-port
p4014
(I1
I51126
tp4015
sV401,100
p4016
(I1
I57046
tp4017
sVremain
p4018
(I12
I15459
tp4019
sVportugues
p4020
(I1
I55947
tp4021
sVnine
p4022
(I10
I927
tp4023
sVden
p4024
(I1
I51067
tp4025
sVabandon
p4026
(I1
I30689
tp4027
sVdec
p4028
(I1
I50195
tp4029
sVoilfield
p4030
(I1
I40869
tp4031
sVbarclay
p4032
(I1
I51680
tp4033
sV5,847,000
p4034
(I1
I30581
tp4035
sVchalleng
p4036
(I3
I35044
tp4037
sVregistr
p4038
(I1
I59889
tp4039
sVshare
p4040
(I67
I18590
tp4041
sVreevalu
p4042
(I1
I55878
tp4043
sVaccept
p4044
(I8
I42455
tp4045
sVboycott
p4046
(I1
I61316
tp4047
sVmargin
p4048
(I1
I66585
tp4049
sVminimum
p4050
(I3
I21759
tp4051
sVbeall
p4052
(I1
I26459
tp4053
sVexplor
p4054
(I13
I44099
tp4055
sVpartner
p4056
(I4
I48705
tp4057
sVsharp
p4058
(I3
I53540
tp4059
sVgreenwich
p4060
(I1
I48184
tp4061
sVdress
p4062
(I1
I27978
tp4063
sVf.
p4064
(I1
I63252
tp4065
sVhuge
p4066
(I2
I49861
tp4067
sVnine-month
p4068
(I1
I45161
tp4069
sVcourt
p4070
(I17
I37702
tp4071
sV5.6
p4072
(I1
I64396
tp4073
sVsecur
p4074
(I14
I17050
tp4075
sVtaiwanes
p4076
(I3
I51322
tp4077
sVanoth
p4078
(I10
I18015
tp4079
sVhugh
p4080
(I3
I40592
tp4081
sVshearson
p4082
(I5
I12734
tp4083
sVdivis
p4084
(I7
I17387
tp4085
sVacquisition'
p4086
(I1
I62468
tp4087
sVreject
p4088
(I2
I17939
tp4089
sVplant
p4090
(I6
I33325
tp4091
sV9,270,000
p4092
(I1
I43700
tp4093
sVresourc
p4094
(I8
I27837
tp4095
sVawb
p4096
(I1
I65241
tp4097
sVbko
p4098
(I1
I40698
tp4099
sV616
p4100
(I1
I37984
tp4101
sVnon-recur
p4102
(I1
I8261
tp4103
sVcatalog
p4104
(I1
I67713
tp4105
sVfc
p4106
(I1
I66785
tp4107
sV4,142,095
p4108
(I1
I42048
tp4109
sVfloor
p4110
(I1
I45659
tp4111
sVsalaam
p4112
(I1
I49288
tp4113
sVassoci
p4114
(I11
I31027
tp4115
sVqchr
p4116
(I1
I57886
tp4117
sVa
(I256
I1650
tp4118
sVcircumst
p4119
(I1
I45688
tp4120
sVshort
p4121
(I2
I48802
tp4122
sV161,019
p4123
(I1
I43895
tp4124
sVovernight
p4125
(I3
I18137
tp4126
sVcaus
p4127
(I5
I11516
tp4128
sV1900gmt
p4129
(I1
I9011
tp4130
sVshore
p4131
(I1
I57451
tp4132
sVimpetu
p4133
(I1
I55273
tp4134
sVpanama
p4135
(I1
I48919
tp4136
sV373.0
p4137
(I1
I43032
tp4138
sVegg
p4139
(I1
I61824
tp4140
sVhelp
p4141
(I10
I13172
tp4142
sVsoon
p4143
(I4
I40937
tp4144
sVsetback
p4145
(I1
I57363
tp4146
sVtrade
p4147
(I39
I35578
tp4148
sVheld
p4149
(I6
I30900
tp4150
sVpaper
p4151
(I3
I39185
tp4152
sVthrough
p4153
(I18
I33098
tp4154
sV11.2
p4155
(I3
I59177
tp4156
sV1.98
p4157
(I1
I7672
tp4158
sVquevedo
p4159
(I1
I47471
tp4160
sVsuffer
p4161
(I1
I26653
tp4162
sV1.91
p4163
(I2
I8129
tp4164
sV24
p4165
(I10
I8778
tp4166
sV25
p4167
(I14
I10486
tp4168
sV26
p4169
(I7
I24513
tp4170
sV27
p4171
(I5
I45180
tp4172
sV20
p4173
(I13
I15066
tp4174
sV21
p4175
(I5
I28037
tp4176
sV22
p4177
(I4
I23219
tp4178
sV23
p4179
(I2
I24827
tp4180
sV9,909,000
p4181
(I1
I54457
tp4182
sVmessel
p4183
(I1
I34368
tp4184
sVborder
p4185
(I2
I62726
tp4186
sV28
p4187
(I11
I24576
tp4188
sV29
p4189
(I4
I19118
tp4190
sVpct
p4191
(I167
I10496
tp4192
sVlate
p4193
(I9
I9135
tp4194
sVpend
p4195
(I4
I30727
tp4196
sVreschedul
p4197
(I1
I26234
tp4198
sVfamou
p4199
(I1
I8021
tp4200
sVpcc
p4201
(I1
I18088
tp4202
sVsenat
p4203
(I1
I60342
tp4204
sValter
p4205
(I1
I60144
tp4206
sV7.07
p4207
(I1
I66335
tp4208
sVgood
p4209
(I18
I25502
tp4210
sVreturn
p4211
(I1
I53104
tp4212
sVfood
p4213
(I8
I25551
tp4214
sVgemcraft
p4215
(I1
I30523
tp4216
sVbought
p4217
(I10
I53639
tp4218
sVframework
p4219
(I1
I46420
tp4220
sVcompound
p4221
(I4
I47778
tp4222
sV3,799,000
p4223
(I1
I50116
tp4224
sVbancorp
p4225
(I1
I50647
tp4226
sVchicago
p4227
(I1
I66915
tp4228
sVwoolworth
p4229
(I1
I56807
tp4230
sVwar
p4231
(I1
I66675
tp4232
sV450,000
p4233
(I1
I45980
tp4234
sVradiat
p4235
(I1
I20225
tp4236
sVachiev
p4237
(I1
I63162
tp4238
sVundertak
p4239
(I1
I2221
tp4240
sVfound
p4241
(I2
I37712
tp4242
sVintervent
p4243
(I7
I28426
tp4244
sVdifficult
p4245
(I1
I40344
tp4246
sV5,900,000
p4247
(I1
I27691
tp4248
sVharm
p4249
(I1
I9909
tp4250
sVdig
p4251
(I1
I56709
tp4252
sVengland
p4253
(I6
I23519
tp4254
sVsteelmak
p4255
(I1
I58388
tp4256
sVharg
p4257
(I1
I43640
tp4258
sVfish
p4259
(I2
I57857
tp4260
sVhard
p4261
(I1
I42590
tp4262
sVidea
p4263
(I1
I8963
tp4264
sVprocedur
p4265
(I2
I12233
tp4266
sVdemocrat
p4267
(I1
I61346
tp4268
sVheavi
p4269
(I6
I11561
tp4270
sVdallas-bas
p4271
(I1
I44109
tp4272
sVfinish
p4273
(I1
I34480
tp4274
sVexpect
p4275
(I40
I24414
tp4276
sVenergi
p4277
(I5
I41219
tp4278
sVbeyond
p4279
(I1
I15414
tp4280
sVrandolph
p4281
(I1
I48204
tp4282
sVorient
p4283
(I1
I37327
tp4284
sV170,000
p4285
(I1
I63262
tp4286
sVagre
p4287
(I11
I18186
tp4288
sVsafeti
p4289
(I2
I33184
tp4290
sVadmiss
p4291
(I1
I61256
tp4292
sV36.22
p4293
(I1
I42640
tp4294
sVitem
p4295
(I2
I44042
tp4296
sVoil-ga
p4297
(I1
I67205
tp4298
sVpublish
p4299
(I4
I29434
tp4300
sVresearch
p4301
(I6
I26948
tp4302
sV1.75
p4303
(I1
I64962
tp4304
sVhealth
p4305
(I3
I25561
tp4306
sV1.72
p4307
(I1
I28940
tp4308
sV1.78
p4309
(I1
I30258
tp4310
sV1.79
p4311
(I1
I58114
tp4312
sVcours
p4313
(I2
I49569
tp4314
sVtextil
p4315
(I2
I51389
tp4316
sVextraordinari
p4317
(I1
I7824
tp4318
sVqualifi
p4319
(I2
I41571
tp4320
sV3.08
p4321
(I1
I984
tp4322
sVrisen
p4323
(I4
I10096
tp4324
sVadvanc
p4325
(I5
I53028
tp4326
sVfriday
p4327
(I8
I15498
tp4328
sV3.07
p4329
(I1
I956
tp4330
sV3.06
p4331
(I2
I36340
tp4332
sVlobbi
p4333
(I1
I44846
tp4334
sVpnbt
p4335
(I1
I66845
tp4336
sVreason
p4337
(I1
I56202
tp4338
sVbase
p4339
(I15
I24245
tp4340
sVbeliev
p4341
(I4
I21454
tp4342
sVput
p4343
(I7
I32291
tp4344
sVsbn
p4345
(I1
I54577
tp4346
sVheadquart
p4347
(I2
I67584
tp4348
sVbasi
p4349
(I1
I2789
tp4350
sVe.f
p4351
(I1
I17901
tp4352
sVlaunch
p4353
(I5
I38235
tp4354
sV2p
p4355
(I1
I63202
tp4356
sVomit
p4357
(I1
I58230
tp4358
sVsuccess
p4359
(I2
I60855
tp4360
sVamerican
p4361
(I9
I12561
tp4362
sV385,081
p4363
(I1
I42028
tp4364
sVbusinessmen
p4365
(I1
I58665
tp4366
sVthreat
p4367
(I1
I27386
tp4368
sVenough
p4369
(I5
I55263
tp4370
sV4,829,000
p4371
(I1
I30640
tp4372
sVundergo
p4373
(I1
I61546
tp4374
sVbushel
p4375
(I1
I60422
tp4376
sVfeed
p4377
(I1
I58714
tp4378
sVcopper
p4379
(I3
I49026
tp4380
sVmajor
p4381
(I17
I17682
tp4382
sVusda
p4383
(I2
I25210
tp4384
sV9-13/16
p4385
(I1
I56966
tp4386
sVfeel
p4387
(I1
I51573
tp4388
sVexchang
p4389
(I10
I7964
tp4390
sVunprofit
p4391
(I1
I66905
tp4392
sVnumber
p4393
(I6
I33427
tp4394
sV360,000
p4395
(I1
I45961
tp4396
sVfeet
p4397
(I6
I41482
tp4398
sVelder
p4399
(I1
I67075
tp4400
sV13,000
p4401
(I2
I50490
tp4402
sVsmaller
p4403
(I3
I52731
tp4404
sVdone
p4405
(I1
I56172
tp4406
sVconstruct
p4407
(I4
I48773
tp4408
sVcolombia
p4409
(I3
I9088
tp4410
sV1987/88
p4411
(I5
I52420
tp4412
sV2,281,000
p4413
(I1
I60578
tp4414
sVstabl
p4415
(I4
I44642
tp4416
sV706,000
p4417
(I1
I45553
tp4418
sVmercuri
p4419
(I1
I9583
tp4420
sVguess
p4421
(I1
I37817
tp4422
sVfcsi
p4423
(I1
I66805
tp4424
sVleast
p4425
(I13
I19927
tp4426
sVpora
p4427
(I1
I39676
tp4428
sV180
p4429
(I2
I29589
tp4430
sVstation
p4431
(I1
I34700
tp4432
sVtighter
p4433
(I1
I65251
tp4434
sVstatement
p4435
(I19
I13300
tp4436
sVmid-1993
p4437
(I1
I66545
tp4438
sVchamplin
p4439
(I1
I44468
tp4440
sVstore
p4441
(I6
I39414
tp4442
sVsummit
p4443
(I1
I67414
tp4444
sVadher
p4445
(I1
I65321
tp4446
sVoption
p4447
(I5
I12753
tp4448
sVrelationship
p4449
(I1
I60243
tp4450
sVbehind
p4451
(I2
I51776
tp4452
sVbank/canada
p4453
(I1
I65112
tp4454
sVhotel
p4455
(I1
I36214
tp4456
sVduti
p4457
(I2
I59524
tp4458
sVsentiment
p4459
(I1
I51719
tp4460
sV638.9
p4461
(I1
I53363
tp4462
sVpart
p4463
(I13
I12874
tp4464
sVcanadaina
p4465
(I1
I45267
tp4466
sVuneconom
p4467
(I1
I40324
tp4468
sVfall
p4469
(I13
I42359
tp4470
sValvaro
p4471
(I1
I55977
tp4472
sV188
p4473
(I1
I53569
tp4474
sVcarryforward
p4475
(I3
I32923
tp4476
sVking
p4477
(I1
I53807
tp4478
sVstg
p4479
(I36
I23636
tp4480
sVwhenev
p4481
(I1
I67504
tp4482
sV5,439,000
p4483
(I1
I45543
tp4484
sVremov
p4485
(I3
I39988
tp4486
sV3,100,000
p4487
(I1
I62149
tp4488
sV4.086
p4489
(I1
I66176
tp4490
sV41.35
p4491
(I1
I38148
tp4492
sV18p
p4493
(I1
I37895
tp4494
sVbridg
p4495
(I1
I20627
tp4496
sVecuador
p4497
(I1
I47092
tp4498
sVreinstat
p4499
(I1
I59504
tp4500
sVarrang
p4501
(I3
I44517
tp4502
sVtoward
p4503
(I2
I26938
tp4504
sVcomput
p4505
(I1
I61032
tp4506
sV79,250
p4507
(I1
I56660
tp4508
sVstrengthen
p4509
(I1
I64061
tp4510
sVwell
p4511
(I19
I21896
tp4512
sV888
p4513
(I1
I37944
tp4514
sVbhd
p4515
(I1
I34033
tp4516
sVmarbl
p4517
(I1
I25730
tp4518
sVtelxon
p4519
(I1
I24302
tp4520
sVpackag
p4521
(I7
I40490
tp4522
sVexpir
p4523
(I5
I21886
tp4524
sV498,800
p4525
(I1
I53867
tp4526
sVsell
p4527
(I37
I5138
tp4528
sVpoultri
p4529
(I4
I58842
tp4530
sVwilson
p4531
(I1
I47998
tp4532
sVequival
p4533
(I3
I28548
tp4534
sVpermian
p4535
(I1
I54212
tp4536
sVlin
p4537
(I1
I63881
tp4538
sVviolat
p4539
(I3
I48851
tp4540
sVstapl
p4541
(I1
I47607
tp4542
sVefh
p4543
(I1
I18108
tp4544
sValso
p4545
(I36
I14949
tp4546
sVlabour
p4547
(I3
I31537
tp4548
sVchairman
p4549
(I10
I31731
tp4550
sVu.k
p4551
(I1
I39136
tp4552
sVcongressmen
p4553
(I1
I60972
tp4554
sV93.6
p4555
(I1
I64932
tp4556
sVpipelin
p4557
(I4
I5500
tp4558
sVdunnen
p4559
(I1
I51077
tp4560
sVdistribut
p4561
(I10
I2610
tp4562
sV64
p4563
(I3
I43197
tp4564
sVnewcastl
p4565
(I1
I65608
tp4566
sVgoldman
p4567
(I1
I48330
tp4568
sVswain
p4569
(I1
I60263
tp4570
sVpreviou
p4571
(I6
I28775
tp4572
sVreach
p4573
(I6
I14344
tp4574
sVquota
p4575
(I2
I1796
tp4576
sVreact
p4577
(I1
I63132
tp4578
sVmost
p4579
(I9
I20811
tp4580
sV75
p4581
(I4
I51882
tp4582
sV74
p4583
(I2
I15603
tp4584
sV73
p4585
(I4
I538
tp4586
sVplan
p4587
(I29
I14430
tp4588
sV70
p4589
(I5
I35229
tp4590
sVgilt
p4591
(I1
I39204
tp4592
sVplab
p4593
(I1
I54162
tp4594
sVeskimo
p4595
(I1
I57511
tp4596
sVswiftli
p4597
(I1
I63142
tp4598
sV5,047,383
p4599
(I1
I63721
tp4600
sVcharg
p4601
(I13
I8271
tp4602
sV7,997,000
p4603
(I1
I43177
tp4604
sV1.20
p4605
(I1
I54497
tp4606
sVseton
p4607
(I1
I48350
tp4608
sVclear
p4609
(I1
I45765
tp4610
sVevacu
p4611
(I1
I49664
tp4612
sVcover
p4613
(I8
I11230
tp4614
sVkm
p4615
(I2
I47893
tp4616
sVsalari
p4617
(I1
I47520
tp4618
sVthree-month
p4619
(I1
I40802
tp4620
sVtmoc
p4621
(I1
I66945
tp4622
sV4,644,000
p4623
(I1
I53293
tp4624
sVccc
p4625
(I1
I42551
tp4626
sVhipt
p4627
(I1
I40460
tp4628
sVbarrel
p4629
(I11
I41374
tp4630
sV2.07
p4631
(I1
I8051
tp4632
sVanti-competit
p4633
(I1
I35559
tp4634
sVsector
p4635
(I4
I31620
tp4636
sVcommerc
p4637
(I2
I21963
tp4638
sVcereal
p4639
(I2
I56045
tp4640
sVgold
p4641
(I25
I43110
tp4642
sVsummer
p4643
(I1
I57571
tp4644
sV3,556,000
p4645
(I1
I63581
tp4646
sVconsult
p4647
(I1
I46049
tp4648
sVnasdaq
p4649
(I1
I54348
tp4650
sVsession
p4651
(I3
I8473
tp4652
sVparticularli
p4653
(I3
I54921
tp4654
sVfreight
p4655
(I3
I49626
tp4656
sV37,500
p4657
(I1
I64327
tp4658
sV0.9
p4659
(I1
I61971
tp4660
sVfind
p4661
(I2
I41248
tp4662
sVpreviously-announc
p4663
(I2
I51901
tp4664
sVimpact
p4665
(I2
I27040
tp4666
sVgiant
p4667
(I1
I14738
tp4668
sV210
p4669
(I1
I63083
tp4670
sVnorthern
p4671
(I3
I58153
tp4672
sVequiti
p4673
(I6
I22504
tp4674
sVmerger
p4675
(I20
I19395
tp4676
sVsolut
p4677
(I1
I60124
tp4678
sVeconomist
p4679
(I17
I51283
tp4680
sVfactor
p4681
(I2
I51563
tp4682
sVbfd
p4683
(I1
I112
tp4684
sVrotterdam
p4685
(I6
I31183
tp4686
sVunhappi
p4687
(I1
I31878
tp4688
sVborg-warn
p4689
(I1
I64713
tp4690
sVworkforc
p4691
(I2
I32148
tp4692
sVhit
p4693
(I2
I39794
tp4694
sV28.5
p4695
(I2
I54597
tp4696
sVzambia
p4697
(I4
I48978
tp4698
sVfinanc
p4699
(I9
I20655
tp4700
sVobtain
p4701
(I1
I63292
tp4702
sVnativ
p4703
(I1
I57501
tp4704
sV1986/87
p4705
(I8
I28455
tp4706
sV5,000
p4707
(I1
I47959
tp4708
sVpeterson/puritain
p4709
(I1
I40470
tp4710
sV1.81
p4711
(I1
I43335
tp4712
sVambiti
p4713
(I1
I16429
tp4714
sVsilk
p4715
(I1
I34500
tp4716
sVsantiago
p4717
(I1
I62903
tp4718
sVrand'
p4719
(I1
I51804
tp4720
sV1,929,000
p4721
(I1
I66865
tp4722
sVsix-month
p4723
(I1
I54872
tp4724
sVgarcia
p4725
(I1
I62686
tp4726
sVcommon
p4727
(I14
I19733
tp4728
sVswitzerland
p4729
(I4
I51757
tp4730
sVriver
p4731
(I1
I62913
tp4732
sVstn
p4733
(I1
I53423
tp4734
sVwrote
p4735
(I1
I57551
tp4736
sVcommod
p4737
(I1
I42513
tp4738
sVcertif
p4739
(I1
I56856
tp4740
sVset
p4741
(I14
I22069
tp4742
sVdump
p4743
(I1
I9749
tp4744
sV313
p4745
(I1
I35219
tp4746
sVterenc
p4747
(I1
I39318
tp4748
sVstartup
p4749
(I2
I30973
tp4750
sV316
p4751
(I1
I16364
tp4752
sVincreasingli
p4753
(I1
I65291
tp4754
sVsee
p4755
(I11
I5185
tp4756
sVbare
p4757
(I1
I38711
tp4758
sVare
p4759
(I46
I13490
tp4760
sVsea
p4761
(I4
I41872
tp4762
sVcalorie-consci
p4763
(I1
I25653
tp4764
sVtender
p4765
(I24
I18689
tp4766
sVclose
p4767
(I16
I7396
tp4768
sV2.1
p4769
(I2
I50823
tp4770
sVsel
p4771
(I1
I48360
tp4772
sV2.7
p4773
(I2
I50292
tp4774
sV2.6
p4775
(I2
I36166
tp4776
sV2.5
p4777
(I3
I64357
tp4778
sVbarn
p4779
(I1
I27988
tp4780
sVrrim
p4781
(I1
I39900
tp4782
sVcincinnati-bas
p4783
(I1
I63471
tp4784
sVsometh
p4785
(I1
I36004
tp4786
sV315.2
p4787
(I1
I917
tp4788
sVgroceri
p4789
(I1
I61814
tp4790
sVwor
p4791
(I1
I35617
tp4792
sVa.h.a
p4793
(I1
I60472
tp4794
sVrestructur
p4795
(I6
I32663
tp4796
sVhoenman
p4797
(I1
I44300
tp4798
sV5-1/2
p4799
(I1
I15555
tp4800
sVexperi
p4801
(I1
I40304
tp4802
sV3.0577
p4803
(I1
I54242
tp4804
sValtern
p4805
(I6
I31888
tp4806
sVkorea
p4807
(I1
I63781
tp4808
sVappreci
p4809
(I3
I51632
tp4810
sVend-1986
p4811
(I1
I62289
tp4812
sV2,317,000
p4813
(I1
I30571
tp4814
sVsold
p4815
(I4
I5419
tp4816
sVsucceed
p4817
(I1
I59651
tp4818
sV246-1/2p
p4819
(I1
I43601
tp4820
sVsolv
p4821
(I1
I60203
tp4822
sVdividend
p4823
(I18
I33771
tp4824
sVinertia
p4825
(I1
I55047
tp4826
sVprimarili
p4827
(I1
I52193
tp4828
sVpopul
p4829
(I1
I66555
tp4830
sV8,548
p4831
(I1
I41472
tp4832
sVboth
p4833
(I10
I14118
tp4834
sVlast
p4835
(I46
I8575
tp4836
sV77-3/8
p4837
(I1
I35994
tp4838
sVlicense
p4839
(I1
I35510
tp4840
sVmodulair
p4841
(I1
I59789
tp4842
sVannual
p4843
(I12
I31445
tp4844
sValon
p4845
(I2
I17444
tp4846
sVbachelor
p4847
(I1
I53737
tp4848
sVforeign
p4849
(I18
I7954
tp4850
sV983,000
p4851
(I1
I45434
tp4852
sV1.64
p4853
(I1
I52292
tp4854
sV1.61
p4855
(I1
I30288
tp4856
sV6,067,676
p4857
(I1
I63711
tp4858
sVlong-term
p4859
(I6
I20712
tp4860
sV122.3
p4861
(I1
I47014
tp4862
sVretend
p4863
(I1
I25944
tp4864
sVmean
p4865
(I2
I64051
tp4866
sVload
p4867
(I1
I65707
tp4868
sVconsolid
p4869
(I3
I49074
tp4870
sVpoint
p4871
(I3
I38510
tp4872
sVschedul
p4873
(I4
I4233
tp4874
sVloan
p4875
(I5
I21027
tp4876
sVleon
p4877
(I1
I47120
tp4878
sVresidu
p4879
(I1
I30804
tp4880
sV43,792,000
p4881
(I1
I30238
tp4882
sVone-for-on
p4883
(I2
I59009
tp4884
sVsuppli
p4885
(I12
I39726
tp4886
sVvessel
p4887
(I6
I37367
tp4888
sVmistak
p4889
(I1
I64624
tp4890
sVthroughout
p4891
(I1
I46059
tp4892
sVcoincid
p4893
(I1
I60992
tp4894
sVyukon
p4895
(I1
I57827
tp4896
sVturnov
p4897
(I4
I34177
tp4898
sVunsuccess
p4899
(I2
I17616
tp4900
sVdealt
p4901
(I1
I67514
tp4902
sVidsal
p4903
(I1
I21288
tp4904
sVterritori
p4905
(I1
I67175
tp4906
sVdue
p4907
(I18
I19694
tp4908
sVpc
p4909
(I1
I18523
tp4910
sVpeninsular
p4911
(I1
I37317
tp4912
sVireland
p4913
(I1
I29078
tp4914
sVmonthli
p4915
(I1
I62249
tp4916
sVthreaten
p4917
(I2
I9966
tp4918
sVstrategi
p4919
(I3
I13832
tp4920
sVfirm
p4921
(I7
I2140
tp4922
sVabolit
p4923
(I1
I66595
tp4924
sVpdvsa
p4925
(I1
I44330
tp4926
sVflight
p4927
(I1
I51853
tp4928
sVchemlawn
p4929
(I1
I54054
tp4930
sVhinu.bo
p4931
(I1
I66385
tp4932
sVimag
p4933
(I1
I25608
tp4934
sVgat
p4935
(I2
I5110
tp4936
sVallen-bradley
p4937
(I1
I26643
tp4938
sVgap
p4939
(I1
I60154
tp4940
sVfund
p4941
(I16
I20598
tp4942
sVpartli
p4943
(I4
I22870
tp4944
sV121.4
p4945
(I1
I45523
tp4946
sVgac
p4947
(I1
I64942
tp4948
sVsubcommitte
p4949
(I1
I61536
tp4950
sVpact
p4951
(I5
I40783
tp4952
sVmlc
p4953
(I1
I63421
tp4954
sV966
p4955
(I1
I37914
tp4956
sVlook
p4957
(I5
I9234
tp4958
sVfrozen
p4959
(I1
I47510
tp4960
sV285
p4961
(I1
I60746
tp4962
sVoilwel
p4963
(I1
I50136
tp4964
sVbill
p4965
(I8
I54882
tp4966
sVmln
p4967
(I326
I859
tp4968
sVbudget
p4969
(I7
I47481
tp4970
sVgovernor
p4971
(I2
I60057
tp4972
sVdurat
p4973
(I1
I66226
tp4974
sV6-1/16
p4975
(I1
I55771
tp4976
sVpace
p4977
(I1
I10642
tp4978
sVwhile
p4979
(I19
I19825
tp4980
sVbilt
p4981
(I1
I50006
tp4982
sVmatch
p4983
(I1
I53243
tp4984
sVabov
p4985
(I8
I46266
tp4986
sVpacc
p4987
(I1
I51974
tp4988
sVfleet
p4989
(I1
I20541
tp4990
sVdi
p4991
(I1
I34750
tp4992
sVrichter
p4993
(I1
I66006
tp4994
sVsmit.t
p4995
(I1
I62229
tp4996
sV19.4
p4997
(I1
I34348
tp4998
sVearli
p4999
(I7
I8677
tp5000
sVcasino
p5001
(I1
I36224
tp5002
sV37
p5003
(I4
I32418
tp5004
sV52.2
p5005
(I1
I63491
tp5006
sVpakistan
p5007
(I1
I66395
tp5008
sVg-7
p5009
(I1
I67394
tp5010
sV521.7
p5011
(I1
I54547
tp5012
sVprotract
p5013
(I1
I55858
tp5014
sVwnac-tv
p5015
(I1
I35520
tp5016
sVillinoi
p5017
(I3
I33382
tp5018
sVcoca-cola
p5019
(I1
I67823
tp5020
sVchase
p5021
(I1
I64684
tp5022
sVexchequ
p5023
(I2
I52760
tp5024
sVbarney
p5025
(I1
I55594
tp5026
sVlayday
p5027
(I1
I57156
tp5028
sVgrant
p5029
(I3
I34952
tp5030
sVmothercar
p5031
(I1
I39424
tp5032
sVmint
p5033
(I1
I64534
tp5034
sVbelong
p5035
(I1
I40035
tp5036
sVstorehous
p5037
(I1
I38731
tp5038
sVitali
p5039
(I9
I28950
tp5040
sV160,000
p5041
(I1
I44379
tp5042
sVconflict
p5043
(I1
I59077
tp5044
sVhigher
p5045
(I14
I24357
tp5046
sVfungicid
p5047
(I1
I40275
tp5048
sVflurri
p5049
(I1
I35786
tp5050
sVoptic
p5051
(I1
I38896
tp5052
sVbonus
p5053
(I1
I42570
tp5054
sVyesterday
p5055
(I9
I9180
tp5056
sVinflat
p5057
(I2
I32644
tp5058
sV70.8
p5059
(I1
I34206
tp5060
sVtemporari
p5061
(I1
I46238
tp5062
sVextrem
p5063
(I1
I40334
tp5064
sVimpedi
p5065
(I1
I65677
tp5066
sVyuan
p5067
(I1
I64110
tp5068
sVtobacco
p5069
(I1
I61961
tp5070
sVrecent
p5071
(I15
I10195
tp5072
sV15.0
p5073
(I1
I50106
tp5074
sV15.1
p5075
(I3
I57966
tp5076
sVlower
p5077
(I12
I38013
tp5078
sVinternationalis
p5079
(I1
I64664
tp5080
sVearmark
p5081
(I1
I63511
tp5082
sVmachineri
p5083
(I2
I37239
tp5084
sVcypru
p5085
(I1
I64802
tp5086
sV15.8
p5087
(I1
I869
tp5088
sVentri
p5089
(I1
I39299
tp5090
sVspent
p5091
(I1
I53649
tp5092
sVgrossli
p5093
(I1
I56576
tp5094
sVperson
p5095
(I2
I40500
tp5096
sV260
p5097
(I1
I66345
tp5098
sVexpens
p5099
(I5
I36480
tp5100
sVwithdraw
p5101
(I2
I31435
tp5102
sVlandmark
p5103
(I1
I33818
tp5104
sV4.96
p5105
(I1
I56866
tp5106
sV149.00
p5107
(I1
I60716
tp5108
sVspend
p5109
(I8
I52839
tp5110
sVpropos
p5111
(I22
I1272
tp5112
sVexplan
p5113
(I1
I44797
tp5114
sVgrif
p5115
(I1
I56996
tp5116
sV7-3/4
p5117
(I3
I65142
tp5118
sV9.0
p5119
(I1
I47053
tp5120
sV2,658,692
p5121
(I1
I43993
tp5122
sV52.5
p5123
(I1
I54607
tp5124
sV67.5
p5125
(I1
I33634
tp5126
sVbelgium
p5127
(I1
I45839
tp5128
sVshape
p5129
(I1
I38641
tp5130
sVldp
p5131
(I1
I61356
tp5132
sVmob
p5133
(I1
I44071
tp5134
sVunilev
p5135
(I1
I66365
tp5136
sVtaiwan
p5137
(I18
I25852
tp5138
sV-grower
p5139
(I1
I52410
tp5140
sVcontinent
p5141
(I3
I39087
tp5142
sVwage
p5143
(I2
I56748
tp5144
sVcut
p5145
(I21
I10996
tp5146
sVcenepa
p5147
(I1
I62893
tp5148
sVliu
p5149
(I1
I63941
tp5150
sVstimul
p5151
(I1
I45336
tp5152
sV499,000
p5153
(I1
I29028
tp5154
sVcontractor
p5155
(I3
I27406
tp5156
sV2,276,000
p5157
(I1
I28110
tp5158
sV13,908,000
p5159
(I1
I22367
tp5160
sVdixon
p5161
(I1
I61981
tp5162
sVsydney
p5163
(I2
I62041
tp5164
sVsnap
p5165
(I2
I23997
tp5166
sVgemh
p5167
(I1
I30551
tp5168
sVarden
p5169
(I1
I66146
tp5170
sVbuild
p5171
(I2
I50940
tp5172
sV...
p5173
(I1
I64604
tp5174
sVcomplaint
p5175
(I1
I9851
tp5176
sVaustralia
p5177
(I9
I22485
tp5178
sVmarch
p5179
(I31
I22155
tp5180
sVviabil
p5181
(I1
I44700
tp5182
sVbig
p5183
(I2
I55391
tp5184
sVbid
p5185
(I18
I18437
tp5186
sVbuyout
p5187
(I4
I18098
tp5188
sV35,700
p5189
(I1
I58359
tp5190
sV997,000
p5191
(I1
I28862
tp5192
sV1,478,066
p5193
(I1
I44003
tp5194
sVresolv
p5195
(I1
I42097
tp5196
sVearthquak
p5197
(I1
I47189
tp5198
sVarthur
p5199
(I1
I45113
tp5200
sV400,000
p5201
(I1
I59355
tp5202
sVpopular
p5203
(I1
I38621
tp5204
sV54.5
p5205
(I1
I46621
tp5206
sV54.7
p5207
(I1
I46593
tp5208
sVinquiri
p5209
(I1
I66825
tp5210
sV936,000
p5211
(I1
I29008
tp5212
sVr.c
p5213
(I1
I44196
tp5214
sVspring
p5215
(I2
I61894
tp5216
sVsome
p5217
(I27
I15095
tp5218
sVback
p5219
(I3
I36156
tp5220
sV3.6
p5221
(I2
I27866
tp5222
sV3.7
p5223
(I2
I46758
tp5224
sV3.4
p5225
(I2
I46700
tp5226
sVunspecifi
p5227
(I1
I34549
tp5228
sV3.2
p5229
(I1
I53707
tp5230
sVpall
p5231
(I1
I55106
tp5232
sV3.0
p5233
(I2
I42778
tp5234
sVpublica
p5235
(I1
I56103
tp5236
sVinsur
p5237
(I12
I22631
tp5238
sVsurpris
p5239
(I1
I45698
tp5240
sV34,000
p5241
(I1
I50588
tp5242
sVaffili
p5243
(I1
I41229
tp5244
sVand/or
p5245
(I1
I28237
tp5246
sV130
p5247
(I1
I61606
tp5248
sV50,745
p5249
(I1
I43923
tp5250
sVpep
p5251
(I1
I61090
tp5252
sVstagger
p5253
(I1
I57689
tp5254
sVper
p5255
(I36
I18562
tp5256
sV3,930,360
p5257
(I1
I59977
tp5258
sVsubstitut
p5259
(I1
I58616
tp5260
sVlarg
p5261
(I7
I21355
tp5262
sVkhj-tv
p5263
(I1
I34720
tp5264
sV4.80
p5265
(I1
I58959
tp5266
sVbe
p5267
(I101
I2998
tp5268
sVrun
p5269
(I3
I44977
tp5270
sV7.28
p5271
(I1
I44987
tp5272
sV300
p5273
(I5
I34598
tp5274
sV2,323,500
p5275
(I1
I57026
tp5276
sVmartin
p5277
(I1
I65946
tp5278
sVagreement
p5279
(I26
I9398
tp5280
sVthoresen
p5281
(I1
I37297
tp5282
sVbu
p5283
(I2
I47655
tp5284
sVstep
p5285
(I3
I59286
tp5286
sVbp
p5287
(I6
I48521
tp5288
sVsanto
p5289
(I1
I66965
tp5290
sVfeb
p5291
(I3
I43876
tp5292
sVgruntal
p5293
(I1
I63551
tp5294
sVby
p5295
(I122
I6739
tp5296
sVmortgag
p5297
(I2
I30843
tp5298
sVtonnag
p5299
(I1
I49930
tp5300
sV76
p5301
(I1
I48812
tp5302
sVcommun
p5303
(I3
I9603
tp5304
sVbrooklyn
p5305
(I1
I59256
tp5306
sVdisclosur
p5307
(I1
I48939
tp5308
sVconciliatori
p5309
(I1
I45639
tp5310
sVcharl
p5311
(I1
I63521
tp5312
sVtriton
p5313
(I1
I41209
tp5314
sVbailli
p5315
(I1
I58279
tp5316
sV37-3/4
p5317
(I1
I36907
tp5318
sVone-tim
p5319
(I2
I52023
tp5320
sViomega
p5321
(I1
I52135
tp5322
sVinto
p5323
(I12
I9554
tp5324
sVwithin
p5325
(I3
I46098
tp5326
sVici.l
p5327
(I1
I34303
tp5328
sVbeira
p5329
(I1
I49327
tp5330
sVtarof
p5331
(I1
I63681
tp5332
sVirrig
p5333
(I2
I56719
tp5334
sV14.10
p5335
(I1
I28644
tp5336
sVsteven
p5337
(I1
I53413
tp5338
sVannounc
p5339
(I26
I18364
tp5340
sVdurabl
p5341
(I1
I55498
tp5342
sVisrael-bas
p5343
(I1
I32980
tp5344
sVcanal
p5345
(I1
I56729
tp5346
sV282.4
p5347
(I1
I30601
tp5348
sVinstitut
p5349
(I5
I34388
tp5350
sVbangladesh
p5351
(I1
I56630
tp5352
sV3,669,000
p5353
(I1
I63571
tp5354
sVagricultur
p5355
(I13
I25410
tp5356
sVlong
p5357
(I4
I28266
tp5358
sVcustom
p5359
(I4
I31074
tp5360
sVu.
p5361
(I17
I18848
tp5362
sV1.56
p5363
(I1
I58094
tp5364
sVinclud
p5365
(I28
I3589
tp5366
sVsuit
p5367
(I4
I45810
tp5368
sVforward
p5369
(I1
I26702
tp5370
sVoccident
p5371
(I1
I22456
tp5372
sV1.59
p5373
(I1
I1014
tp5374
sVzealand
p5375
(I3
I53956
tp5376
sVlarri
p5377
(I1
I16958
tp5378
sVgetti
p5379
(I1
I63731
tp5380
sVreorgan
p5381
(I2
I17079
tp5382
sVtazara
p5383
(I1
I49219
tp5384
sVjewish
p5385
(I1
I67374
tp5386
sVsubsidiari
p5387
(I23
I7060
tp5388
sVm-1b
p5389
(I1
I56926
tp5390
sVslump
p5391
(I1
I55663
tp5392
sVcloth
p5393
(I1
I61951
tp5394
sV1985/86
p5395
(I3
I28804
tp5396
sVlink
p5397
(I1
I49540
tp5398
sVtranslat
p5399
(I1
I32990
tp5400
sVdelta
p5401
(I1
I57837
tp5402
sVline
p5403
(I10
I29299
tp5404
sVisra
p5405
(I2
I33010
tp5406
sVconsist
p5407
(I2
I40966
tp5408
sVhindustan
p5409
(I1
I66236
tp5410
sV2,485,510
p5411
(I1
I53837
tp5412
sV434,000
p5413
(I1
I50852
tp5414
sVretaliatori
p5415
(I2
I60462
tp5416
sVup
p5417
(I39
I2348
tp5418
sVus
p5419
(I4
I39521
tp5420
sV5.12
p5421
(I1
I56916
tp5422
sV're
p5423
(I1
I38661
tp5424
sVuk
p5425
(I1
I52663
tp5426
sV211,000
p5427
(I1
I8231
tp5428
sVsimilar
p5429
(I8
I15730
tp5430
sVenlarg
p5431
(I2
I23126
tp5432
sVmetal
p5433
(I4
I9880
tp5434
sV``
p5435
(I78
I16739
tp5436
sVrepres
p5437
(I2
I48066
tp5438
sVjanatha
p5439
(I1
I40045
tp5440
sVdefus
p5441
(I1
I60826
tp5442
sVcurb
p5443
(I4
I40265
tp5444
sVhome
p5445
(I7
I39443
tp5446
sV105.3
p5447
(I1
I27729
tp5448
sV105.0
p5449
(I1
I59236
tp5450
sVcotton
p5451
(I2
I34490
tp5452
sVcoven
p5453
(I1
I52262
tp5454
sVgru
p5455
(I1
I63561
tp5456
sVtaro
p5457
(I1
I63661
tp5458
sVinvalid
p5459
(I1
I48968
tp5460
sVnav
p5461
(I1
I59445
tp5462
sVlibrari
p5463
(I2
I55898
tp5464
sVsimilarli
p5465
(I2
I62577
tp5466
sVmanhattan
p5467
(I3
I63392
tp5468
sVwhitehal
p5469
(I2
I22254
tp5470
sVparticular
p5471
(I1
I45820
tp5472
sVroel
p5473
(I1
I51057
tp5474
sVlend
p5475
(I4
I29801
tp5476
sVxon
p5477
(I1
I57639
tp5478
sVathen
p5479
(I1
I37597
tp5480
sVwilliam
p5481
(I1
I21675
tp5482
sVwrongli
p5483
(I1
I18447
tp5484
sVreportedli
p5485
(I1
I60312
tp5486
sVleaf
p5487
(I1
I39580
tp5488
sVago
p5489
(I8
I26585
tp5490
sVlane
p5491
(I1
I17281
tp5492
sVland
p5493
(I4
I30670
tp5494
sVlanc
p5495
(I1
I39531
tp5496
sVcben
p5497
(I1
I67295
tp5498
sVvice
p5499
(I3
I44253
tp5500
sVdismantl
p5501
(I1
I56338
tp5502
sVsvc
p5503
(I1
I58182
tp5504
sVedward
p5505
(I1
I65171
tp5506
sV2002
p5507
(I1
I19704
tp5508
sVdepth
p5509
(I2
I41443
tp5510
sVappendix
p5511
(I1
I65697
tp5512
sVsvz
p5513
(I1
I31804
tp5514
sVcame
p5515
(I4
I46219
tp5516
sV2,455,000
p5517
(I1
I61991
tp5518
sVtreati
p5519
(I1
I56318
tp5520
sVh.k
p5521
(I1
I51203
tp5522
sV6.28
p5523
(I1
I53323
tp5524
sVgv
p5525
(I1
I59908
tp5526
sVtrustco
p5527
(I1
I63322
tp5528
sVtruck
p5529
(I1
I59543
tp5530
sVminer
p5531
(I2
I49113
tp5532
sVbroaden
p5533
(I1
I13217
tp5534
sVgy
p5535
(I1
I34645
tp5536
sVcobalt
p5537
(I1
I49386
tp5538
sVluxembourg
p5539
(I1
I64466
tp5540
sVga
p5541
(I5
I7879
tp5542
sVgo
p5543
(I5
I15386
tp5544
sV1/4
p5545
(I1
I65122
tp5546
sV15,000
p5547
(I1
I48783
tp5548
sV43.7
p5549
(I1
I42817
tp5550
sVhampshir
p5551
(I1
I58299
tp5552
sVndta
p5553
(I1
I59137
tp5554
sVcompact
p5555
(I1
I55927
tp5556
sVprivat
p5557
(I10
I26028
tp5558
sVsoro
p5559
(I1
I53797
tp5560
sVrtc
p5561
(I1
I62983
tp5562
sV1,037,000
p5563
(I1
I32843
tp5564
sVquarterli
p5565
(I8
I26909
tp5566
sVlilli
p5567
(I1
I66126
tp5568
sVyoung
p5569
(I1
I45141
tp5570
sVsend
p5571
(I1
I49007
tp5572
sVmower
p5573
(I1
I62090
tp5574
sVstatutori
p5575
(I2
I48744
tp5576
sVnippon
p5577
(I1
I58398
tp5578
sVcartier
p5579
(I1
I65777
tp5580
sVgold-bear
p5581
(I1
I62863
tp5582
sVshorter-d
p5583
(I1
I55420
tp5584
sVmeyo
p5585
(I1
I25152
tp5586
sVopposit
p5587
(I1
I60913
tp5588
sVsens
p5589
(I1
I15948
tp5590
sV2,840
p5591
(I1
I65032
tp5592
sVindemn
p5593
(I1
I37453
tp5594
sVsent
p5595
(I1
I62518
tp5596
sVcheapli
p5597
(I1
I66685
tp5598
sVgarden
p5599
(I1
I67594
tp5600
sVdisclos
p5601
(I3
I33950
tp5602
sVrole
p5603
(I3
I65460
tp5604
sVprudential-bach
p5605
(I1
I17040
tp5606
sVignasio
p5607
(I1
I62813
tp5608
sV8,872,000
p5609
(I1
I22357
tp5610
sVelectron
p5611
(I3
I27425
tp5612
sVvolum
p5613
(I4
I46928
tp5614
sVdisast
p5615
(I1
I36937
tp5616
sV382.3
p5617
(I1
I57926
tp5618
sVtri
p5619
(I4
I2319
tp5620
sV777,667
p5621
(I1
I59957
tp5622
sVtro
p5623
(I2
I41152
tp5624
sVtrn
p5625
(I1
I44767
tp5626
sV390.7
p5627
(I1
I66305
tp5628
sVfewer
p5629
(I1
I63991
tp5630
sV7.1
p5631
(I1
I61834
tp5632
sVappar
p5633
(I1
I48900
tp5634
sVcar
p5635
(I1
I61755
tp5636
sVnine-day
p5637
(I1
I66206
tp5638
sV2.20
p5639
(I1
I53985
tp5640
sV2.21
p5641
(I1
I58065
tp5642
sVover-depend
p5643
(I1
I61139
tp5644
sVsown
p5645
(I1
I66485
tp5646
sV568
p5647
(I1
I53619
tp5648
sVcap
p5649
(I2
I20215
tp5650
sVnatur
p5651
(I7
I45563
tp5652
sVcrop
p5653
(I8
I39871
tp5654
sVporl.l
p5655
(I1
I37357
tp5656
sVjump
p5657
(I2
I36053
tp5658
sVchina'
p5659
(I1
I51253
tp5660
sVvideo
p5661
(I3
I43837
tp5662
sVzy
p5663
(I1
I30228
tp5664
sV93.2
p5665
(I1
I64862
tp5666
sVindex
p5667
(I4
I46815
tp5668
sVpower
p5669
(I3
I51486
tp5670
sVcompar
p5671
(I15
I26546
tp5672
sVlehman
p5673
(I1
I12893
tp5674
sVaccess
p5675
(I2
I13125
tp5676
sV;
(I154
I67
tp5677
sVwhatev
p5678
(I1
I49588
tp5679
sVbecor
p5680
(I1
I48164
tp5681
sV3,358,000
p5682
(I1
I28065
tp5683
sVabsolut
p5684
(I1
I46641
tp5685
sV435,900
p5686
(I1
I58783
tp5687
sV4,359,000
p5688
(I1
I45513
tp5689
sVpunch
p5690
(I1
I61169
tp5691
sVn.a
p5692
(I2
I50735
tp5693
sVclosur
p5694
(I1
I20205
tp5695
sV20/64
p5696
(I1
I41511
tp5697
sVnortheast
p5698
(I1
I67344
tp5699
sVn.z
p5700
(I2
I54005
tp5701
sVballi
p5702
(I1
I36126
tp5703
sVbecom
p5704
(I6
I50706
tp5705
sVsinc
p5706
(I7
I52469
tp5707
sVstockbrok
p5708
(I1
I52809
tp5709
sVresidenti
p5710
(I1
I59829
tp5711
sV39
p5712
(I1
I33604
tp5713
sV38
p5714
(I1
I19972
tp5715
sVconvers
p5716
(I1
I55908
tp5717
sVseven-year
p5718
(I1
I54812
tp5719
sV33
p5720
(I4
I36640
tp5721
sV32
p5722
(I6
I25069
tp5723
sV31
p5724
(I19
I24459
tp5725
sV30
p5726
(I30
I2421
tp5727
sVtechnolog
p5728
(I9
I5284
tp5729
sValaska
p5730
(I1
I57274
tp5731
sV35
p5732
(I5
I18543
tp5733
sV34
p5734
(I3
I32319
tp5735
sVtonn
p5736
(I66
I10224
tp5737
sVsurvey
p5738
(I2
I52516
tp5739
sVctc
p5740
(I1
I60608
tp5741
sVopinion
p5742
(I3
I59048
tp5743
sVchang
p5744
(I8
I25283
tp5745
sV4.95
p5746
(I1
I53273
tp5747
sVmaker
p5748
(I2
I41882
tp5749
sVchanc
p5750
(I6
I42214
tp5751
sVreinsur
p5752
(I2
I37377
tp5753
sV199.4
p5754
(I1
I59701
tp5755
sVemploye
p5756
(I3
I15793
tp5757
sVu.k.
p5758
(I17
I23354
tp5759
sV67.0
p5760
(I1
I64832
tp5761
sVforbid
p5762
(I1
I58566
tp5763
sVappli
p5764
(I2
I5091
tp5765
sVapproxim
p5766
(I2
I48636
tp5767
sV7.54
p5768
(I1
I45006
tp5769
sV8,157,864
p5770
(I1
I67753
tp5771
sV4.75
p5772
(I1
I66985
tp5773
sVprestig
p5774
(I1
I47326
tp5775
sVmotor
p5776
(I1
I61745
tp5777
sVpl480
p5778
(I1
I57096
tp5779
sVwritedown
p5780
(I3
I7898
tp5781
sV650.7
p5782
(I1
I66276
tp5783
sVfed
p5784
(I2
I17060
tp5785
sV64.9
p5786
(I1
I52302
tp5787
sVfrom
p5788
(I109
I1906
tp5789
sV&
(I140
I20
tp5790
sVchi
p5791
(I1
I63951
tp5792
sVhudson
p5793
(I2
I36669
tp5794
sVchl
p5795
(I1
I59849
tp5796
sVfibr
p5797
(I1
I34539
tp5798
sVhi-port
p5799
(I1
I40450
tp5800
sVfew
p5801
(I3
I36034
tp5802
sVtwo-third
p5803
(I1
I47219
tp5804
sVintend
p5805
(I3
I48419
tp5806
sVmidday
p5807
(I1
I8908
tp5808
sVremaind
p5809
(I2
I35239
tp5810
sVsort
p5811
(I1
I42126
tp5812
sViit
p5813
(I1
I45356
tp5814
sVparliament
p5815
(I5
I42058
tp5816
sV1/2
p5817
(I2
I38465
tp5818
sVsharpli
p5819
(I5
I35666
tp5820
sVcomparison
p5821
(I1
I64090
tp5822
sV0.5
p5823
(I5
I34062
tp5824
sV41.5
p5825
(I1
I59266
tp5826
sV41.4
p5827
(I1
I32863
tp5828
sV41.2
p5829
(I1
I58035
tp5830
sVtrain
p5831
(I1
I49851
tp5832
sV8
(I1
I53877
tp5833
sV1,360,000
p5834
(I1
I43817
tp5835
sVgambl
p5836
(I1
I36234
tp5837
sVmitsubishi
p5838
(I1
I42728
tp5839
sVharvest
p5840
(I5
I56797
tp5841
sV43.3
p5842
(I1
I28120
tp5843
sV14.09
p5844
(I1
I28663
tp5845
sVaccount
p5846
(I10
I23315
tp5847
sVdarwin
p5848
(I1
I67135
tp5849
sV172,000
p5850
(I1
I45494
tp5851
sValic
p5852
(I1
I67125
tp5853
sVsterling-denomin
p5854
(I1
I38631
tp5855
sVcheshir
p5856
(I1
I67633
tp5857
sVjustic
p5858
(I4
I40726
tp5859
sVunreal
p5860
(I1
I7926
tp5861
sV1.49
p5862
(I1
I30278
tp5863
sV1.48
p5864
(I1
I43345
tp5865
sVdrill
p5866
(I6
I41013
tp5867
sV61.9
p5868
(I1
I42807
tp5869
sVmeet
p5870
(I13
I4134
tp5871
sVapril/may
p5872
(I1
I67245
tp5873
sVpeke
p5874
(I1
I59375
tp5875
sVdivestitur
p5876
(I1
I50175
tp5877
sVcontrol
p5878
(I16
I22909
tp5879
sVtap
p5880
(I1
I39011
tp5881
sV3,516,000
p5882
(I1
I59147
tp5883
sV4.07
p5884
(I1
I56906
tp5885
sVprocess
p5886
(I3
I45346
tp5887
sV0.3
p5888
(I3
I46787
tp5889
sVslim
p5890
(I1
I60865
tp5891
sVtax
p5892
(I24
I6381
tp5893
sV0.4
p5894
(I8
I49949
tp5895
sV0.7
p5896
(I4
I55673
tp5897
sV0.6
p5898
(I1
I34167
tp5899
sVhigh
p5900
(I6
I20293
tp5901
sVslip
p5902
(I1
I64140
tp5903
sVsought
p5904
(I1
I24226
tp5905
sV22,522,000
p5906
(I1
I54517
tp5907
sVsuiss
p5908
(I1
I64228
tp5909
sVsir
p5910
(I1
I43296
tp5911
sVmartyr
p5912
(I1
I56269
tp5913
sVforese
p5914
(I3
I46145
tp5915
sV4.00
p5916
(I1
I67025
tp5917
sVpure
p5918
(I1
I37798
tp5919
sVsix
p5920
(I14
I19216
tp5921
sVtanzania-zambia
p5922
(I1
I49199
tp5923
sVgeorg
p5924
(I2
I43306
tp5925
sVconn
p5926
(I1
I67643
tp5927
sV23.3
p5928
(I1
I7727
tp5929
sVwarner
p5930
(I3
I64773
tp5931
sV47.4
p5932
(I1
I57936
tp5933
sVstock
p5934
(I45
I15545
tp5935
sVfare
p5936
(I1
I47674
tp5937
sVexpress
p5938
(I6
I12642
tp5939
sVattend
p5940
(I3
I64674
tp5941
sVyearli
p5942
(I1
I64495
tp5943
sV3,262,000
p5944
(I1
I33614
tp5945
sVre-weight
p5946
(I1
I55361
tp5947
sVronald
p5948
(I1
I60962
tp5949
sVpressur
p5950
(I2
I60894
tp5951
sVunidentifi
p5952
(I1
I66815
tp5953
sV94.90
p5954
(I1
I58536
tp5955
sVnpt
p5956
(I1
I63242
tp5957
sVredund
p5958
(I4
I31917
tp5959
sVphilosophi
p5960
(I1
I64654
tp5961
sV5,463,000
p5962
(I1
I30621
tp5963
sVphysic
p5964
(I2
I64298
tp5965
sVvillag
p5966
(I3
I56680
tp5967
sValloc
p5968
(I2
I46690
tp5969
sVemperor
p5970
(I1
I64564
tp5971
sVessenti
p5972
(I1
I65499
tp5973
sVguilder
p5974
(I5
I31492
tp5975
sVseriou
p5976
(I3
I21628
tp5977
sVstocks/american
p5978
(I1
I35637
tp5979
sVissu
p5980
(I26
I15631
tp5981
sVchief
p5982
(I12
I17154
tp5983
sVallow
p5984
(I13
I12252
tp5985
sValloy
p5986
(I1
I36897
tp5987
sV143,000
p5988
(I1
I39949
tp5989
sVhouston
p5990
(I1
I65757
tp5991
sVreuter
p5992
(I1
I26488
tp5993
sV8.50
p5994
(I1
I66995
tp5995
sVmove
p5996
(I11
I17397
tp5997
sVempresa
p5998
(I1
I56084
tp5999
sV2,191
p6000
(I1
I42378
tp6001
sVown
p6002
(I16
I17755
tp6003
sV155,764
p6004
(I1
I33069
tp6005
sV135
p6006
(I1
I53253
tp6007
sVnon-season
p6008
(I1
I47034
tp6009
sVwarren
p6010
(I1
I21278
tp6011
sVperfect
p6012
(I1
I39482
tp6013
sVparliamentari
p6014
(I1
I42233
tp6015
sVconsensu
p6016
(I1
I59325
tp6017
sVla
p6018
(I1
I30113
tp6019
sVlo
p6020
(I5
I26750
tp6021
sVlabor
p6022
(I1
I61636
tp6023
sVlt
p6024
(I17
I39
tp6025
sV4-36-2-10w2
p6026
(I1
I41325
tp6027
sVdecad
p6028
(I1
I63063
tp6029
sVholiday
p6030
(I1
I41619
tp6031
sVcorroon
p6032
(I1
I67544
tp6033
sVglass-mak
p6034
(I1
I62378
tp6035
sVmicrobiolog
p6036
(I1
I39881
tp6037
sV11,445,000
p6038
(I1
I8071
tp6039
sVnakason
p6040
(I1
I60766
tp6041
sVamoskeag
p6042
(I1
I63302
tp6043
sVhandl
p6044
(I4
I49616
tp6045
sVauto
p6046
(I1
I20138
tp6047
sVoveral
p6048
(I2
I61716
tp6049
sVstrateg
p6050
(I3
I14354
tp6051
sV158
p6052
(I1
I53579
tp6053
sVtribun
p6054
(I1
I60432
tp6055
sVdar
p6056
(I1
I49268
tp6057
sVinstead
p6058
(I3
I40755
tp6059
sVinvestor
p6060
(I13
I22995
tp6061
sVday
p6062
(I15
I15574
tp6063
sVyesterday'
p6064
(I1
I59296
tp6065
sVabolish
p6066
(I1
I64406
tp6067
sVanyth
p6068
(I1
I60942
tp6069
sVmodx
p6070
(I1
I59799
tp6071
sVunlimit
p6072
(I1
I66635
tp6073
sVfebruari
p6074
(I45
I36312
tp6075
sVweather
p6076
(I3
I47063
tp6077
sVbil
p6078
(I1
I58979
tp6079
sVpolit
p6080
(I6
I51872
tp6081
sVfive-year
p6082
(I3
I41581
tp6083
sVhigh-yield
p6084
(I1
I55087
tp6085
sVpetrobra
p6086
(I1
I48145
tp6087
sV4,711,000
p6088
(I1
I63611
tp6089
sV5,100,000
p6090
(I1
I62159
tp6091
sVintellig
p6092
(I1
I41939
tp6093
sV0.2
p6094
(I1
I61804
tp6095
sV700
p6096
(I1
I60726
tp6097
sVimposit
p6098
(I1
I64446
tp6099
sVgrower
p6100
(I1
I52430
tp6101
sV89
p6102
(I1
I59187
tp6103
sV676,341
p6104
(I1
I60017
tp6105
sV864,000
p6106
(I1
I50813
tp6107
sV317p
p6108
(I1
I66106
tp6109
sV82
p6110
(I1
I50539
tp6111
sV83
p6112
(I1
I18635
tp6113
sV80
p6114
(I5
I45484
tp6115
sVsecretari
p6116
(I1
I30046
tp6117
sV87
p6118
(I1
I52634
tp6119
sVspecial
p6120
(I9
I8444
tp6121
sVout
p6122
(I11
I16477
tp6123
sVmartha
p6124
(I1
I60696
tp6125
sVrainfal
p6126
(I1
I65837
tp6127
sV260,000
p6128
(I1
I64031
tp6129
sV2.30
p6130
(I1
I66655
tp6131
sV'
(I16
I13643
tp6132
sV34,800
p6133
(I1
I58339
tp6134
sVinfluenc
p6135
(I2
I51097
tp6136
sVsemi-gilt
p6137
(I1
I51823
tp6138
sVrev
p6139
(I53
I888
tp6140
sVcategori
p6141
(I1
I65361
tp6142
sVdominion
p6143
(I1
I45237
tp6144
sVbarley
p6145
(I1
I67215
tp6146
sVcounter-bid
p6147
(I1
I66935
tp6148
sV2.85
p6149
(I1
I66755
tp6150
sVsubmers
p6151
(I2
I41086
tp6152
sV50.05
p6153
(I1
I38138
tp6154
sVdefens
p6155
(I2
I27396
tp6156
sVred
p6157
(I1
I42600
tp6158
sVwholli
p6159
(I4
I18476
tp6160
sVclarifi
p6161
(I1
I17543
tp6162
sVtakeov
p6163
(I5
I17872
tp6164
sV1987
p6165
(I27
I26299
tp6166
sVregulatori
p6167
(I2
I35063
tp6168
sVspot
p6169
(I1
I64594
tp6170
sV2.51
p6171
(I1
I58045
tp6172
sV290,000
p6173
(I1
I32903
tp6174
sVshekel
p6175
(I1
I33020
tp6176
sVgaug
p6177
(I1
I66615
tp6178
sVecu
p6179
(I1
I38070
tp6180
sV2.50
p6181
(I1
I66665
tp6182
sVyork
p6183
(I7
I24255
tp6184
sV12,500,000
p6185
(I1
I8300
tp6186
sVusual
p6187
(I1
I59365
tp6188
sVreleas
p6189
(I4
I46957
tp6190
sVregion
p6191
(I2
I62716
tp6192
sVphilip
p6193
(I2
I48370
tp6194
sV20,000
p6195
(I1
I62309
tp6196
sV449,000
p6197
(I1
I50026
tp6198
sVmainland
p6199
(I1
I64120
tp6200
sV2.55
p6201
(I1
I67085
tp6202
sVcould
p6203
(I28
I13023
tp6204
sVsegreg
p6205
(I1
I65411
tp6206
sV918,000
p6207
(I1
I65817
tp6208
sVkeep
p6209
(I1
I21180
tp6210
sVarbitrag
p6211
(I1
I35796
tp6212
sVcorp.
p6213
(I1
I59601
tp6214
sV997.1
p6215
(I1
I1034
tp6216
sVoutsid
p6217
(I3
I27545
tp6218
sVltd
p6219
(I35
I7625
tp6220
sVretain
p6221
(I6
I20158
tp6222
sVretail
p6223
(I10
I39338
tp6224
sVsouth
p6225
(I17
I48578
tp6226
sVrespond
p6227
(I3
I44885
tp6228
sVwestar
p6229
(I1
I27599
tp6230
sV452
p6231
(I1
I43561
tp6232
sVqualiti
p6233
(I1
I65261
tp6234
sVsach
p6235
(I1
I48340
tp6236
sV318
p6237
(I1
I57728
tp6238
sVowner
p6239
(I1
I18495
tp6240
sVfacil
p6241
(I9
I33354
tp6242
sVcorrected-network
p6243
(I1
I43827
tp6244
sVbois
p6245
(I1
I59809
tp6246
sVtwo-
p6247
(I1
I55185
tp6248
sVunfavour
p6249
(I1
I55057
tp6250
sVhee
p6251
(I1
I52361
tp6252
sV25,667,000
p6253
(I1
I54527
tp6254
sVlicens
p6255
(I2
I34866
tp6256
sVsystem
p6257
(I20
I32775
tp6258
sV1,986,710
p6259
(I1
I53847
tp6260
sVharuo
p6261
(I1
I61456
tp6262
sVtheir
p6263
(I24
I9937
tp6264
sVattack
p6265
(I1
I32252
tp6266
sVexpenditur
p6267
(I2
I53057
tp6268
sV651
p6269
(I1
I65062
tp6270
sVtermin
p6271
(I5
I5705
tp6272
sVrupe
p6273
(I5
I66266
tp6274
sVzambia'
p6275
(I1
I49802
tp6276
sVpre-budget
p6277
(I1
I38370
tp6278
sVtownsend
p6279
(I1
I37278
tp6280
sVpurol
p6281
(I1
I18043
tp6282
sVshell
p6283
(I2
I41823
tp6284
sVgear
p6285
(I1
I48273
tp6286
sV43.2
p6287
(I1
I63461
tp6288
sVjuli
p6289
(I2
I31240
tp6290
sVgreenbaum
p6291
(I1
I55574
tp6292
sV7.45
p6293
(I1
I51193
tp6294
sVbyron
p6295
(I1
I57541
tp6296
sVfour-year
p6297
(I1
I54802
tp6298
sVonshor
p6299
(I1
I67155
tp6300
sVaccompani
p6301
(I1
I63073
tp6302
sV2,194,000
p6303
(I1
I66855
tp6304
sV9.5
p6305
(I1
I34129
tp6306
sVdiminish
p6307
(I2
I43504
tp6308
sVreaffirm
p6309
(I2
I33155
tp6310
sVnobodi
p6311
(I1
I67484
tp6312
sVsteel
p6313
(I12
I58408
tp6314
sV3,354
p6315
(I1
I65042
tp6316
sVholland
p6317
(I1
I62993
tp6318
sV5,669,682
p6319
(I1
I42038
tp6320
sV2.9
p6321
(I2
I6019
tp6322
sVstructur
p6323
(I5
I52051
tp6324
sV1,394,000
p6325
(I1
I50096
tp6326
sVsweden
p6327
(I1
I38681
tp6328
sVlight
p6329
(I7
I55126
tp6330
sV9,282,000
p6331
(I1
I43807
tp6332
sVpsycholog
p6333
(I2
I38906
tp6334
sVsteep
p6335
(I1
I59315
tp6336
sV1.4
p6337
(I2
I42837
tp6338
sV1.5
p6339
(I2
I50833
tp6340
sVinra
p6341
(I1
I45678
tp6342
sV1.1
p6343
(I8
I33931
tp6344
sV1.3
p6345
(I1
I62696
tp6346
sVfowl
p6347
(I1
I65022
tp6348
sVacuqisit
p6349
(I1
I67574
tp6350
sVpartnership
p6351
(I7
I44320
tp6352
sV1.8
p6353
(I1
I66505
tp6354
sV1.9
p6355
(I3
I43081
tp6356
sVtonight
p6357
(I3
I24060
tp6358
sV2.3
p6359
(I2
I49959
tp6360
sV3.80/90
p6361
(I1
I46334
tp6362
sVnetherland
p6363
(I1
I28989
tp6364
sVhave
p6365
(I42
I14011
tp6366
sVreserv
p6367
(I29
I8310
tp6368
sVneed
p6369
(I11
I16604
tp6370
sVkeener
p6371
(I1
I63771
tp6372
sVfeatur
p6373
(I1
I62656
tp6374
sV2.0
p6375
(I2
I50930
tp6376
sVsatoshi
p6377
(I1
I60076
tp6378
sVmesseng
p6379
(I1
I18147
tp6380
sVrout
p6381
(I2
I49151
tp6382
sVmid
p6383
(I2
I19882
tp6384
sVstearn
p6385
(I1
I36572
tp6386
sVpreced
p6387
(I1
I57777
tp6388
sVwhich
p6389
(I60
I3473
tp6390
sV1.30
p6391
(I1
I28960
tp6392
sV115.3
p6393
(I1
I56826
tp6394
sVdivert
p6395
(I2
I49103
tp6396
sVfropm
p6397
(I1
I53887
tp6398
sV1.34
p6399
(I1
I30268
tp6400
sVgraviti
p6401
(I1
I41403
tp6402
sVsingl
p6403
(I2
I38916
tp6404
sVsoar
p6405
(I1
I37674
tp6406
sVunless
p6407
(I5
I22020
tp6408
sVe.f.
p6409
(I1
I18297
tp6410
sVfidel
p6411
(I1
I34923
tp6412
sVpetrol
p6413
(I1
I44359
tp6414
sVwho
p6415
(I6
I26731
tp6416
sVwhi
p6417
(I1
I44958
tp6418
sVdiscov
p6419
(I1
I53609
tp6420
sVpresid
p6421
(I22
I17330
tp6422
sVwht
p6423
(I1
I22299
tp6424
sVeight
p6425
(I11
I8061
tp6426
sVht
p6427
(I1
I40621
tp6428
sV15.50
p6429
(I1
I48234
tp6430
sVstoppag
p6431
(I1
I48105
tp6432
sVsegment
p6433
(I2
I26430
tp6434
sVpayment
p6435
(I8
I43514
tp6436
sVfair
p6437
(I1
I62616
tp6438
sVsomewh
p6439
(I1
I26356
tp6440
sVplacement
p6441
(I1
I23052
tp6442
sVunanim
p6443
(I2
I57226
tp6444
sValaskan
p6445
(I1
I57216
tp6446
sVstronger
p6447
(I1
I44128
tp6448
sV2,266,000
p6449
(I1
I32833
tp6450
sVface
p6451
(I4
I36957
tp6452
sVinde
p6453
(I1
I55341
tp6454
sVdeni
p6455
(I4
I35627
tp6456
sV84.9
p6457
(I1
I60412
tp6458
sVnisshin
p6459
(I1
I58476
tp6460
sVdetermin
p6461
(I1
I60382
tp6462
sVundersea
p6463
(I1
I41929
tp6464
sVtransamerica
p6465
(I6
I22446
tp6466
sVscrap
p6467
(I1
I63911
tp6468
sVfact
p6469
(I3
I57561
tp6470
sVaffair
p6471
(I2
I31396
tp6472
sVmereeni
p6473
(I1
I67195
tp6474
sVentertain
p6475
(I2
I55829
tp6476
sVparticip
p6477
(I5
I48448
tp6478
sVecomom
p6479
(I1
I55458
tp6480
sVbring
p6481
(I4
I15584
tp6482
sVelig
p6483
(I1
I56288
tp6484
sVlloyd
p6485
(I1
I37004
tp6486
sVtrane
p6487
(I1
I67703
tp6488
sVportfolio
p6489
(I1
I55371
tp6490
sVfear
p6491
(I1
I61236
tp6492
sVdiscoveri
p6493
(I1
I63192
tp6494
sVtexa
p6495
(I3
I44419
tp6496
sVmozambican
p6497
(I1
I49308
tp6498
sVstaff
p6499
(I1
I21943
tp6500
sVredirect
p6501
(I1
I61120
tp6502
sVnearer
p6503
(I1
I32553
tp6504
sVmackenzi
p6505
(I1
I52829
tp6506
sVhighest
p6507
(I1
I42406
tp6508
sVlocat
p6509
(I1
I62773
tp6510
sVplanter
p6511
(I1
I66835
tp6512
sVtire
p6513
(I2
I60627
tp6514
sVdenatur
p6515
(I1
I38099
tp6516
sV(
(I36
I8415
tp6517
sVlsa
p6518
(I1
I33873
tp6519
sVrash
p6520
(I1
I55067
tp6521
sVshould
p6522
(I23
I24729
tp6523
sVmanufactur
p6524
(I6
I34407
tp6525
sVearner
p6526
(I1
I61656
tp6527
sVwon
p6528
(I1
I64100
tp6529
sVtape
p6530
(I1
I55888
tp6531
sVfuel
p6532
(I4
I38341
tp6533
sVb
(I1
I52970
tp6534
sVdiscontinu
p6535
(I8
I40132
tp6536
sVhope
p6537
(I2
I44856
tp6538
sVvigor
p6539
(I2
I56531
tp6540
sV142.7
p6541
(I1
I46888
tp6542
sVcontribut
p6543
(I3
I16336
tp6544
sV142.2
p6545
(I1
I46898
tp6546
sVbeat
p6547
(I1
I38829
tp6548
sVconvert
p6549
(I4
I38721
tp6550
sVmichigan
p6551
(I2
I42894
tp6552
sV700,000
p6553
(I1
I48076
tp6554
sVhire
p6555
(I1
I47491
tp6556
sVbear
p6557
(I1
I36527
tp6558
sVautom
p6559
(I1
I26673
tp6560
sV120
p6561
(I3
I21308
tp6562
sVjoint
p6563
(I9
I13281
tp6564
sVbean
p6565
(I1
I67285
tp6566
sVtransco
p6567
(I1
I42300
tp6568
sV125
p6569
(I1
I52115
tp6570
sVdownturn
p6571
(I1
I63122
tp6572
sVonex
p6573
(I1
I20083
tp6574
sVcleric
p6575
(I1
I61666
tp6576
sVspur
p6577
(I1
I39502
tp6578
sVlucki
p6579
(I1
I65886
tp6580
sVshr
p6581
(I74
I268
tp6582
sVenabl
p6583
(I4
I39175
tp6584
sVorgan
p6585
(I4
I1425
tp6586
sVtwice
p6587
(I1
I59097
tp6588
sVupper
p6589
(I1
I67115
tp6590
sVdenmark
p6591
(I1
I29038
tp6592
sV256,600
p6593
(I1
I58871
tp6594
sVdebentur
p6595
(I2
I19297
tp6596
sV966,200
p6597
(I1
I58753
tp6598
sVgalvan
p6599
(I1
I36849
tp6600
sVtableland
p6601
(I1
I41315
tp6602
sVshc
p6603
(I1
I41833
tp6604
sVintegr
p6605
(I2
I13562
tp6606
sVcontain
p6607
(I6
I18803
tp6608
sVreil
p6609
(I1
I62031
tp6610
sVohio
p6611
(I1
I66925
tp6612
sV788,099
p6613
(I1
I50205
tp6614
sVview
p6615
(I3
I12724
tp6616
sVstebbin
p6617
(I1
I57817
tp6618
sVgvmi
p6619
(I1
I59928
tp6620
sVqtr
p6621
(I42
I195
tp6622
sV34.7
p6623
(I1
I27759
tp6624
sV34.6
p6625
(I1
I43012
tp6626
sVwe
p6627
(I10
I21400
tp6628
sVcpi-u
p6629
(I1
I61626
tp6630
sVcpi-w
p6631
(I1
I61676
tp6632
sV36.9
p6633
(I1
I22426
tp6634
sV36.5
p6635
(I1
I43236
tp6636
sV36.4
p6637
(I1
I58437
tp6638
sV36.3
p6639
(I2
I58055
tp6640
sVstatu
p6641
(I1
I41541
tp6642
sVwa
p6643
(I85
I10705
tp6644
sVreform
p6645
(I1
I60932
tp6646
sVtaggart
p6647
(I1
I21720
tp6648
sVnationwid
p6649
(I1
I47750
tp6650
sVmisus
p6651
(I1
I27218
tp6652
sV36,000
p6653
(I1
I49357
tp6654
sVconveni
p6655
(I1
I65996
tp6656
sVdlr
p6657
(I183
I385
tp6658
sVstate
p6659
(I23
I12372
tp6660
sVschoufour
p6661
(I1
I31868
tp6662
sVentrant
p6663
(I1
I23305
tp6664
sVcensu
p6665
(I1
I51223
tp6666
sVcrude
p6667
(I3
I44613
tp6668
sVchairmen
p6669
(I1
I17359
tp6670
sVcomplement
p6671
(I1
I61406
tp6672
sVmidnight
p6673
(I1
I54093
tp6674
sVindefinit
p6675
(I1
I48095
tp6676
sVcentr
p6677
(I1
I51027
tp6678
sVverifi
p6679
(I1
I67404
tp6680
sVbarreto
p6681
(I1
I55996
tp6682
sV1,750
p6683
(I2
I62120
tp6684
sVlaroch
p6685
(I1
I63222
tp6686
sV5.35
p6687
(I1
I30318
tp6688
sVjob
p6689
(I1
I9994
tp6690
sVentir
p6691
(I3
I52233
tp6692
sV5.31
p6693
(I1
I53727
tp6694
sVkey
p6695
(I2
I47413
tp6696
sV13.76
p6697
(I1
I28528
tp6698
sVbreaker
p6699
(I1
I63791
tp6700
sVendo
p6701
(I1
I54281
tp6702
sVaddit
p6703
(I5
I27313
tp6704
sVbty.l
p6705
(I1
I43286
tp6706
sV2.42
p6707
(I2
I53443
tp6708
sVproverbi
p6709
(I1
I38790
tp6710
sVzccm
p6711
(I1
I49084
tp6712
sV381
p6713
(I1
I43476
tp6714
sV2.48
p6715
(I1
I53333
tp6716
sVdrug
p6717
(I2
I50901
tp6718
sVapril
p6719
(I28
I1951
tp6720
sVgrain
p6721
(I11
I42699
tp6722
sVcommitte
p6723
(I6
I42204
tp6724
sVgti
p6725
(I1
I63741
tp6726
sV32.1
p6727
(I2
I52351
tp6728
sV32.5
p6729
(I1
I8011
tp6730
sV32.6
p6731
(I1
I60588
tp6732
sVcomment
p6733
(I5
I15357
tp6734
sVtransamerican
p6735
(I1
I51929
tp6736
sV62.08
p6737
(I1
I67035
tp6738
sVco
p6739
(I52
I12772
tp6740
sVwall
p6741
(I2
I14656
tp6742
sV56.2
p6743
(I1
I45444
tp6744
sVtuesday
p6745
(I4
I46564
tp6746
sVcomplementari
p6747
(I1
I67145
tp6748
sVnear-term
p6749
(I1
I27094
tp6750
sVarriv
p6751
(I1
I56758
tp6752
sVcd
p6753
(I1
I56876
tp6754
sVwalt
p6755
(I1
I34730
tp6756
sVprivately-own
p6757
(I1
I59819
tp6758
sVcommenc
p6759
(I1
I21992
tp6760
sV11,000
p6761
(I1
I52545
tp6762
sVrespect
p6763
(I11
I33674
tp6764
sV88,974,000
p6765
(I1
I30298
tp6766
sVwithdrawn
p6767
(I1
I21832
tp6768
sVct
p6769
(I134
I636
tp6770
sV8.1
p6771
(I1
I53827
tp6772
sVquit
p6773
(I1
I39472
tp6774
sVag
p6775
(I1
I62021
tp6776
sV8.8
p6777
(I3
I34052
tp6778
sVguin
p6779
(I1
I65916
tp6780
sV6.33
p6781
(I1
I51233
tp6782
sVcent
p6783
(I13
I36747
tp6784
sVcompon
p6785
(I3
I35936
tp6786
sVyao
p6787
(I1
I63931
tp6788
sVoutflow
p6789
(I1
I60756
tp6790
sV4,638,000
p6791
(I1
I28197
tp6792
sVelectr
p6793
(I4
I35190
tp6794
sVimmedi
p6795
(I6
I36766
tp6796
sVdure
p6797
(I10
I42650
tp6798
sV>
(I169
I166
tp6799
sVquarter-end
p6800
(I1
I55741
tp6801
sVnickel
p6802
(I1
I62239
tp6803
sVtreasur
p6804
(I1
I39560
tp6805
sV1200
p6806
(I1
I57176
tp6807
sVbulk
p6808
(I3
I46295
tp6809
sVdoneg
p6810
(I1
I33039
tp6811
sVnaphtha
p6812
(I1
I44623
tp6813
sVcbl
p6814
(I1
I67564
tp6815
sVbull
p6816
(I1
I38321
tp6817
sVgross
p6818
(I1
I61566
tp6819
sVpig
p6820
(I1
I58812
tp6821
sVoverwhelmingli
p6822
(I1
I63431
tp6823
sVspain
p6824
(I5
I28833
tp6825
sVstatist
p6826
(I3
I46768
tp6827
sVdebtor
p6828
(I1
I60193
tp6829
sVtherefor
p6830
(I2
I60164
tp6831
sVsuperannu
p6832
(I1
I23325
tp6833
sV58.2
p6834
(I1
I63591
tp6835
sVas
p6836
(I87
I3187
tp6837
sVon-market
p6838
(I1
I67095
tp6839
sVwill
p6840
(I122
I1640
tp6841
sV370.7
p6842
(I1
I27769
tp6843
sVounc
p6844
(I1
I48665
tp6845
sVrochest
p6846
(I1
I62963
tp6847
sV43
p6848
(I2
I60501
tp6849
sVhigh-rank
p6850
(I1
I61426
tp6851
sV62.4
p6852
(I1
I36385
tp6853
sV26,500
p6854
(I1
I65717
tp6855
sVpurchas
p6856
(I14
I18746
tp6857
sVengag
p6858
(I2
I7070
tp6859
sVziyang
p6860
(I1
I58596
tp6861
sVoversea
p6862
(I6
I44138
tp6863
sVsite
p6864
(I1
I62783
tp6865
sVvs
p6866
(I168
I457
tp6867
sVsubstanti
p6868
(I3
I45065
tp6869
sV171,600
p6870
(I1
I58832
tp6871
sVincom
p6872
(I3
I36283
tp6873
sVrevis
p6874
(I10
I23465
tp6875
sVavg
p6876
(I23
I30611
tp6877
sV4.50
p6878
(I1
I22880
tp6879
sVvancouv
p6880
(I1
I67853
tp6881
sVscienc
p6882
(I1
I41979
tp6883
sVlankan
p6884
(I1
I39968
tp6885
sVwelcom
p6886
(I1
I54695
tp6887
sVjapanes
p6888
(I10
I14850
tp6889
sV)
(I1
I8425
tp6890
sVparti
p6891
(I5
I12327
tp6892
sVbegan
p6893
(I4
I42261
tp6894
sVsatisfi
p6895
(I1
I61386
tp6896
sVcross
p6897
(I1
I52682
tp6898
sVmember
p6899
(I6
I8880
tp6900
sV3,060,407
p6901
(I1
I60007
tp6902
sVnorthwest
p6903
(I2
I26187
tp6904
sVlargest
p6905
(I5
I53134
tp6906
sVinch
p6907
(I1
I41423
tp6908
sVoutbreak
p6909
(I1
I40383
tp6910
sV12,131,000
p6911
(I1
I8281
tp6912
sVprobabl
p6913
(I6
I11678
tp6914
sV15-30
p6915
(I1
I26075
tp6916
sVcompetit
p6917
(I9
I13271
tp6918
sVtighten
p6919
(I1
I58546
tp6920
sVcolumbia
p6921
(I1
I27818
tp6922
sVraymond
p6923
(I1
I25142
tp6924
sVcubic
p6925
(I1
I53510
tp6926
sVexpans
p6927
(I1
I60174
tp6928
sVeffect
p6929
(I18
I23097
tp6930
sVcoffe
p6931
(I9
I1209
tp6932
sV4.6
p6933
(I2
I43052
tp6934
sVexpand
p6935
(I5
I17663
tp6936
sVaudit
p6937
(I1
I45046
tp6938
sVoff
p6939
(I6
I16117
tp6940
sVcenter
p6941
(I4
I51107
tp6942
sVridgeway
p6943
(I1
I48568
tp6944
sVi
(I3
I27179
tp6945
sVlaboratori
p6946
(I1
I66795
tp6947
sVdiversifi
p6948
(I1
I49792
tp6949
sVindonesia
p6950
(I1
I39716
tp6951
sVtwo-for-on
p6952
(I2
I30469
tp6953
sVcontroversi
p6954
(I1
I57343
tp6955
sVthought
p6956
(I1
I38770
tp6957
sV7.75
p6958
(I1
I54832
tp6959
sVbro/fri
p6960
(I1
I64992
tp6961
sV350
p6962
(I4
I23753
tp6963
sV1.22
p6964
(I1
I4001
tp6965
sV1.21
p6966
(I1
I30561
tp6967
sVaudio
p6968
(I1
I50793
tp6969
sVsoviet
p6970
(I1
I9564
tp6971
sV43.75
p6972
(I1
I67185
tp6973
sV1.25
p6974
(I4
I16419
tp6975
sVlatest
p6976
(I2
I43365
tp6977
sVpakistani
p6978
(I1
I66435
tp6979
sV237.2
p6980
(I1
I57916
tp6981
sVless
p6982
(I4
I25702
tp6983
sVwagner
p6984
(I1
I62349
tp6985
sV411,000
p6986
(I1
I50959
tp6987
sVmultibank
p6988
(I1
I50764
tp6989
sVakron
p6990
(I1
I35375
tp6991
sVinterim
p6992
(I1
I34081
tp6993
sVvirtual
p6994
(I2
I49229
tp6995
sVlow-pow
p6996
(I1
I41901
tp6997
sVpaul
p6998
(I1
I64238
tp6999
sVbrokerag
p7000
(I2
I12978
tp7001
sVtcb
p7002
(I1
I59869
tp7003
sV4.60
p7004
(I1
I67005
tp7005
sVpatricio
p7006
(I1
I47452
tp7007
sV249.9
p7008
(I1
I67045
tp7009
sVprovision
p7010
(I1
I46938
tp7011
sVbell
p7012
(I1
I62209
tp7013
sVsmith
p7014
(I1
I55584
tp7015
sVlake
p7016
(I1
I53747
tp7017
sV26.3
p7018
(I1
I63003
tp7019
sVadd
p7020
(I4
I20395
tp7021
sVother
p7022
(I33
I20036
tp7023
sVgeelong
p7024
(I1
I65637
tp7025
sVoilse
p7026
(I1
I66495
tp7027
sV4,186,000
p7028
(I1
I50036
tp7029
sVwarrant
p7030
(I2
I18756
tp7031
sVenact
p7032
(I1
I29617
tp7033
sVgmt
p7034
(I1
I8501
tp7035
sVrationalis
p7036
(I1
I58496
tp7037
sVroyalti
p7038
(I3
I41600
tp7039
sVrememb
p7040
(I1
I67494
tp7041
sVprefabr
p7042
(I1
I59839
tp7043
sVchancellor
p7044
(I1
I52741
tp7045
sV14.7
p7046
(I1
I66515
tp7047
sVcattle/calf
p7048
(I1
I58763
tp7049
sVhaul
p7050
(I1
I49841
tp7051
sVrealiz
p7052
(I2
I33921
tp7053
sVfive
p7054
(I17
I37539
tp7055
sV265
p7056
(I2
I18233
tp7057
sV1,541,000
p7058
(I1
I33654
tp7059
sVresumpt
p7060
(I1
I4049
tp7061
sV14.0
p7062
(I1
I66535
tp7063
sVloss
p7064
(I101
I6837
tp7065
sVlike
p7066
(I14
I20874
tp7067
sVlost
p7068
(I4
I21298
tp7069
sV88.9
p7070
(I1
I34187
tp7071
sVhbo/cannon
p7072
(I1
I67773
tp7073
sVcorpor
p7074
(I5
I39126
tp7075
sVtrans-info
p7076
(I1
I64733
tp7077
sV1,048,543
p7078
(I1
I43933
tp7079
sVconran
p7080
(I1
I39328
tp7081
sVlawson
p7082
(I1
I52789
tp7083
sVnecessari
p7084
(I3
I46651
tp7085
sVlose
p7086
(I1
I61366
tp7087
sVdivest
p7088
(I1
I40840
tp7089
sVsoft
p7090
(I2
I26692
tp7091
sVpage
p7092
(I1
I7605
tp7093
sVpersist
p7094
(I1
I55351
tp7095
sVitalian
p7096
(I1
I67434
tp7097
sVconven
p7098
(I1
I8992
tp7099
sVexceed
p7100
(I1
I64308
tp7101
sVrevers
p7102
(I1
I44023
tp7103
sVincent
p7104
(I1
I41647
tp7105
sVhabitat
p7106
(I1
I39453
tp7107
sVcaptur
p7108
(I1
I10414
tp7109
sV9,396,000
p7110
(I1
I43690
tp7111
sVscottish
p7112
(I2
I41696
tp7113
sVyear'
p7114
(I1
I66525
tp7115
sV115
p7116
(I1
I56936
tp7117
sVbatteri
p7118
(I1
I22577
tp7119
sVhondura
p7120
(I1
I57086
tp7121
sVgrowth
p7122
(I7
I14411
tp7123
sVexport
p7124
(I42
I1742
tp7125
sV110
p7126
(I2
I48254
tp7127
sVguarante
p7128
(I1
I19675
tp7129
sVpeter
p7130
(I1
I55546
tp7131
sVdraw
p7132
(I1
I61208
tp7133
sV118
p7134
(I1
I63103
tp7135
sVtransport
p7136
(I10
I32205
tp7137
sV2.14
p7138
(I1
I58309
tp7139
sVest
p7140
(I1
I57196
tp7141
sVcompetitor
p7142
(I2
I21647
tp7143
sVfeder
p7144
(I8
I6300
tp7145
sVlead
p7146
(I3
I36868
tp7147
sVavoid
p7148
(I1
I49337
tp7149
sVannex
p7150
(I1
I52960
tp7151
sVbundesbank
p7152
(I3
I46209
tp7153
sVslide
p7154
(I1
I47199
tp7155
sVleas
p7156
(I1
I57294
tp7157
sVestim
p7158
(I18
I19835
tp7159
sVleav
p7160
(I8
I39784
tp7161
sVsettl
p7162
(I2
I31667
tp7163
sVkokan
p7164
(I1
I58506
tp7165
sV?
(I1
I64288
tp7166
sVmode
p7167
(I1
I65509
tp7168
sVpr
p7169
(I1
I40245
tp7170
sVencourag
p7171
(I2
I64199
tp7172
sVdci
p7173
(I1
I33286
tp7174
sVusag
p7175
(I1
I49703
tp7176
sV27.1
p7177
(I1
I63382
tp7178
sV27.0
p7179
(I1
I63342
tp7180
sValthough
p7181
(I3
I41657
tp7182
sVoffset
p7183
(I9
I6658
tp7184
sV27.9
p7185
(I1
I33644
tp7186
sVsohio
p7187
(I1
I57649
tp7188
sVmonetari
p7189
(I4
I46448
tp7190
sVafter
p7191
(I34
I21973
tp7192
sVstage
p7193
(I2
I27247
tp7194
sVpayout
p7195
(I1
I22079
tp7196
sVabout
p7197
(I35
I16025
tp7198
sVquarter
p7199
(I21
I6111
tp7200
sVactual
p7201
(I2
I32481
tp7202
sV25.7
p7203
(I1
I53353
tp7204
sV25.6
p7205
(I1
I58084
tp7206
sV25.9
p7207
(I1
I33574
tp7208
sVwithdrew
p7209
(I1
I35258
tp7210
sVaziz
p7211
(I1
I66425
tp7212
sVcpi
p7213
(I1
I61646
tp7214
sV630,000
p7215
(I1
I65797
tp7216
sVstamp
p7217
(I1
I67524
tp7218
sVwholly-own
p7219
(I1
I15986
tp7220
sVprudenti
p7221
(I1
I37924
tp7222
sVupward
p7223
(I1
I53589
tp7224
sVgazett
p7225
(I1
I29515
tp7226
sV9,300,000
p7227
(I1
I27719
tp7228
sVauster
p7229
(I1
I47375
tp7230
sVcarolyn
p7231
(I1
I67275
tp7232
sVowe
p7233
(I2
I6479
tp7234
sVtsia
p7235
(I1
I63901
tp7236
sV631.6
p7237
(I1
I63362
tp7238
sVwashington
p7239
(I2
I60816
tp7240
sVautomat
p7241
(I1
I46000
tp7242
sVassess
p7243
(I1
I52526
tp7244
sV5.24
p7245
(I1
I7717
tp7246
sVassest
p7247
(I1
I44448
tp7248
sV8/10
p7249
(I1
I41181
tp7250
sVhwa
p7251
(I1
I63971
tp7252
sVliberalis
p7253
(I3
I30199
tp7254
sVplantat
p7255
(I1
I39920
tp7256
sVbelgium/luxembourg
p7257
(I1
I29018
tp7258
sVempty-hand
p7259
(I1
I61326
tp7260
sVmerg
p7261
(I2
I40736
tp7262
sV1986
p7263
(I59
I7796
tp7264
sV2.52
p7265
(I1
I22387
tp7266
sV1984
p7267
(I1
I57748
tp7268
sV1985
p7269
(I24
I32364
tp7270
sV1982
p7271
(I1
I64386
tp7272
sV1983
p7273
(I2
I57699
tp7274
sV1980
p7275
(I5
I35481
tp7276
sV1981
p7277
(I1
I46843
tp7278
sVtexaco
p7279
(I1
I57659
tp7280
sVtransfer
p7281
(I2
I44738
tp7282
sV1988
p7283
(I1
I36650
tp7284
sV1989
p7285
(I1
I48675
tp7286
sV9.8
p7287
(I1
I61785
tp7288
sVlisbon
p7289
(I1
I56298
tp7290
sV9.4
p7291
(I1
I58930
tp7292
sVstrike-hit
p7293
(I1
I31591
tp7294
sV9.6
p7295
(I1
I53787
tp7296
sV9.7
p7297
(I1
I30348
tp7298
sVpretax
p7299
(I6
I30660
tp7300
sVdeliveri
p7301
(I6
I20512
tp7302
sVreduc
p7303
(I11
I47540
tp7304
sVabastecimento
p7305
(I1
I56113
tp7306
sVbuy
p7307
(I23
I18775
tp7308
sVnorth
p7309
(I4
I36737
tp7310
sVn-1
p7311
(I1
I58289
tp7312
sVhr
p7313
(I1
I57186
tp7314
sVbrand
p7315
(I1
I66046
tp7316
sVadvers
p7317
(I1
I58259
tp7318
sVead
p7319
(I1
I50803
tp7320
sVbut
p7321
(I43
I15123
tp7322
sV567
p7323
(I1
I41355
tp7324
sV8.24
p7325
(I1
I66325
tp7326
sVhi
p7327
(I12
I36499
tp7328
sVgain
p7329
(I21
I5230
tp7330
sVlarger
p7331
(I1
I53085
tp7332
sVeas
p7333
(I1
I46458
tp7334
sVha
p7335
(I81
I4449
tp7336
sV79,000
p7337
(I1
I42445
tp7338
sVhe
p7339
(I63
I26836
tp7340
sVmade
p7341
(I12
I22733
tp7342
sVdisplac
p7343
(I1
I63841
tp7344
sVwhether
p7345
(I5
I15919
tp7346
sVwish
p7347
(I1
I66475
tp7348
sVj
(I1
I65191
tp7349
sV86.6
p7350
(I1
I28207
tp7351
sV149.4
p7352
(I1
I26517
tp7353
sVrecord
p7354
(I29
I6009
tp7355
sVbelow
p7356
(I7
I10807
tp7357
sV725
p7358
(I1
I40255
tp7359
sVlimit
p7360
(I7
I27132
tp7361
sV12-member
p7362
(I1
I28483
tp7363
sVfetch
p7364
(I1
I62458
tp7365
sV200,000
p7366
(I1
I59345
tp7367
sVproblem
p7368
(I3
I27294
tp7369
sVwalter
p7370
(I1
I22049
tp7371
sVblock
p7372
(I3
I48890
tp7373
sVevalu
p7374
(I1
I58134
tp7375
sVyear-end
p7376
(I1
I50667
tp7377
sVsecaucu
p7378
(I1
I35306
tp7379
sV9,313,000
p7380
(I1
I22416
tp7381
sV973,400
p7382
(I1
I58734
tp7383
sVcircul
p7384
(I2
I14602
tp7385
sVour
p7386
(I5
I53668
tp7387
sVinc
p7388
(I72
I10
tp7389
sVautomot
p7390
(I1
I60491
tp7391
sVmutual
p7392
(I3
I37482
tp7393
sV2,245,000
p7394
(I1
I43650
tp7395
sV48
p7396
(I2
I50578
tp7397
sV49
p7398
(I2
I60549
tp7399
sV46
p7400
(I2
I19512
tp7401
sV47
p7402
(I1
I50076
tp7403
sV44
p7404
(I1
I58910
tp7405
sV45
p7406
(I6
I45405
tp7407
sV42
p7408
(I5
I20026
tp7409
sVdetail
p7410
(I7
I48929
tp7411
sV40
p7412
(I5
I10762
tp7413
sV41
p7414
(I1
I60530
tp7415
sVbook
p7416
(I1
I30785
tp7417
sV84
p7418
(I1
I26575
tp7419
sVbranch
p7420
(I3
I50677
tp7421
sVvarieti
p7422
(I5
I38992
tp7423
sV11.1
p7424
(I4
I50745
tp7425
sVrepeat
p7426
(I4
I59465
tp7427
sVmonday
p7428
(I3
I31712
tp7429
sVbaker/hugh
p7430
(I1
I50156
tp7431
sVjersey-bas
p7432
(I1
I18127
tp7433
sVjune
p7434
(I11
I26130
tp7435
sVstay
p7436
(I1
I51661
tp7437
sVstaf
p7438
(I1
I67693
tp7439
sVapparel
p7440
(I1
I61864
tp7441
sV29.8
p7442
(I1
I43246
tp7443
sV4.20
p7444
(I1
I58989
tp7445
sV29.4
p7446
(I1
I58104
tp7447
sV29.6
p7448
(I1
I7757
tp7449
sVtultex
p7450
(I1
I52565
tp7451
sVdecemb
p7452
(I9
I26507
tp7453
sVappoint
p7454
(I1
I45257
tp7455
sV9,220,000
p7456
(I1
I43767
tp7457
sV0.50
p7458
(I1
I59405
tp7459
sVcoordin
p7460
(I1
I65470
tp7461
sVbaker
p7462
(I7
I40679
tp7463
sVrule
p7464
(I12
I25683
tp7465
sVportion
p7466
(I1
I61376
tp7467
sVemerg
p7468
(I1
I66405
tp7469
sVrichco
p7470
(I1
I42748
tp7471
sVrural
p7472
(I1
I56650
tp7473
sV294.0
p7474
(I1
I27939
tp7475
sVbcw
p7476
(I1
I48174
tp7477
sVdefend
p7478
(I1
I56416
tp7479
s.