(dp1
Vrefus
p2
(I2
I136916
tp3
sVnurseri
p4
(I1
I128763
tp5
sV1,800
p6
(I1
I136856
tp7
sVdemand
p8
(I7
I121207
tp9
sVfour
p10
(I17
I44893
tp11
sVprotest
p12
(I3
I98705
tp13
sVoff-shor
p14
(I1
I131778
tp15
sVtomaqu
p16
(I1
I137411
tp17
sV1.12
p18
(I1
I124959
tp19
sV9,000
p20
(I1
I124110
tp21
sV161.5
p22
(I1
I128683
tp23
sVmicrobilt
p24
(I1
I123524
tp25
sV1.18
p26
(I2
I99736
tp27
sV1.19
p28
(I2
I134271
tp29
sV344
p30
(I1
I138388
tp31
sVdeviat
p32
(I1
I129850
tp33
sVunder
p34
(I22
I60160
tp35
sV7.69
p36
(I1
I124939
tp37
sVfast-grow
p38
(I1
I83504
tp39
sVworth
p40
(I5
I76353
tp41
sVside-product
p42
(I1
I141342
tp43
sVmerchant
p44
(I1
I109416
tp45
sVanti-dump
p46
(I1
I49442
tp47
sV45.8
p48
(I1
I99785
tp49
sVeveri
p50
(I3
I137661
tp51
sVrisk
p52
(I1
I139848
tp53
sVsaskatchewan
p54
(I1
I112826
tp55
sVvoid
p56
(I1
I132131
tp57
sV15/april
p58
(I1
I84930
tp59
sVvoic
p60
(I1
I87586
tp61
sV6,506,792
p62
(I1
I100135
tp63
sV12,427,000
p64
(I1
I45071
tp65
sVgovern
p66
(I15
I90800
tp67
sVaffect
p68
(I3
I110134
tp69
sVwick
p70
(I1
I126596
tp71
sV157,100
p72
(I1
I131432
tp73
sV229/230
p74
(I1
I134890
tp75
sVwednesday
p76
(I3
I69339
tp77
sV1,841,000
p78
(I1
I118082
tp79
sV11.5
p80
(I2
I134232
tp81
sVhoy
p82
(I1
I110490
tp83
sV298
p84
(I1
I127702
tp85
sV8,804,397
p86
(I1
I138058
tp87
sVartist
p88
(I1
I142230
tp89
sVlancast
p90
(I1
I137601
tp91
sVcharter
p92
(I1
I132337
tp93
sVinnopac
p94
(I1
I136716
tp95
sVbelow-cost
p96
(I1
I50307
tp97
sVfranc
p98
(I4
I94180
tp99
sVmiller
p100
(I1
I127162
tp101
sVdirect
p102
(I2
I125121
tp103
sVsunbelt
p104
(I1
I128753
tp105
sVsecond
p106
(I3
I132190
tp107
sVstreet
p108
(I2
I62635
tp109
sVsooth
p110
(I1
I135354
tp111
sVaggreg
p112
(I1
I75366
tp113
sV279
p114
(I1
I77749
tp115
sVchem
p116
(I1
I128260
tp117
sVmid-1988
p118
(I1
I121987
tp119
sVeven
p120
(I6
I30464
tp121
sVaim
p122
(I3
I109510
tp123
sV329.0
p124
(I1
I136272
tp125
sVamus
p126
(I1
I104710
tp127
sV129,250
p128
(I1
I131030
tp129
sVnear
p130
(I3
I130197
tp131
sVdecre
p132
(I2
I95268
tp133
sVspokesman
p134
(I9
I64463
tp135
sV390,179
p136
(I1
I116226
tp137
sVconduct
p138
(I2
I117612
tp139
sVnew
p140
(I40
I11773
tp141
sVnet
p142
(I47
I5585
tp143
sVbuy-sid
p144
(I1
I129482
tp145
sVdisney
p146
(I1
I102477
tp147
sVtold
p148
(I16
I89355
tp149
sV201,660
p150
(I1
I124247
tp151
sVspecialist
p152
(I1
I108998
tp153
sVtire'
p154
(I1
I135254
tp155
sV2447
p156
(I1
I111269
tp157
sV2444
p158
(I1
I111259
tp159
sVnever
p160
(I1
I104471
tp161
sVhere
p162
(I3
I117374
tp163
sV27p
p164
(I1
I107686
tp165
sVmet
p166
(I2
I121279
tp167
sVpratt
p168
(I1
I82353
tp169
sVchina
p170
(I5
I114458
tp171
sV103
p172
(I2
I102851
tp173
sV100
p174
(I9
I52119
tp175
sV105
p176
(I2
I82092
tp177
sVreadmit
p178
(I1
I130524
tp179
sVforum
p180
(I1
I142021
tp181
sVtaper
p182
(I1
I142300
tp183
sVauction
p184
(I2
I128939
tp185
sVmilitari
p186
(I2
I91213
tp187
sV1,865,000
p188
(I1
I100949
tp189
sVderegul
p190
(I2
I94554
tp191
sV3,321,000
p192
(I1
I123594
tp193
sV704,803
p194
(I1
I113605
tp195
sVvogu
p196
(I1
I109426
tp197
sVrecor
p198
(I1
I126003
tp199
sVpermit
p200
(I1
I122150
tp201
sVstudi
p202
(I6
I58396
tp203
sVdiplomat
p204
(I2
I123340
tp205
sVcounti
p206
(I2
I130906
tp207
sVcommemor
p208
(I1
I139121
tp209
sVcampaign
p210
(I1
I94112
tp211
sVcompany'
p212
(I1
I127594
tp213
sVnewspap
p214
(I1
I122548
tp215
sVreagan
p216
(I3
I131730
tp217
sVbrought
p218
(I1
I123428
tp219
sVshun
p220
(I1
I138538
tp221
sVpound
p222
(I4
I104240
tp223
sV155,000
p224
(I1
I114849
tp225
sVsterl
p226
(I1
I108197
tp227
sV9p
p228
(I1
I107608
tp229
sVtotal
p230
(I23
I27567
tp231
sVunit
p232
(I28
I31843
tp233
sVhighli
p234
(I2
I64352
tp235
sVdescrib
p236
(I1
I125314
tp237
sVwould
p238
(I33
I23345
tp239
sVchampney
p240
(I1
I140643
tp241
sVinjunct
p242
(I2
I130925
tp243
sVprescript
p244
(I1
I136430
tp245
sVthree-for-two
p246
(I3
I86924
tp247
sV301,000
p248
(I1
I101040
tp249
sVconcret
p250
(I1
I136072
tp251
sVcall
p252
(I7
I105189
tp253
sVasset
p254
(I6
I95334
tp255
sVrecommend
p256
(I4
I112220
tp257
sVstrike
p258
(I3
I98516
tp259
sVindiana
p260
(I2
I132651
tp261
sV220,000
p262
(I1
I138746
tp263
sVtype
p264
(I1
I123241
tp265
sVuntil
p266
(I8
I31348
tp267
sVmoir
p268
(I1
I110021
tp269
sV99,706
p270
(I1
I139679
tp271
sVremark
p272
(I1
I134044
tp273
sVrelat
p274
(I5
I104114
tp275
sVtrenwick
p276
(I1
I100819
tp277
sVaward
p278
(I1
I114664
tp279
sVhurt
p280
(I2
I125034
tp281
sV99
p282
(I3
I115947
tp283
sV98
p284
(I1
I122943
tp285
sVimbal
p286
(I1
I134673
tp287
sV8,146,000
p288
(I1
I133748
tp289
sVadjourn
p290
(I1
I112275
tp291
sV90
p292
(I4
I123978
tp293
sVhold
p294
(I15
I56055
tp295
sV95
p296
(I2
I122924
tp297
sV94
p298
(I1
I137909
tp299
sVmust
p300
(I7
I95397
tp301
sV1991
p302
(I1
I124100
tp303
sVaccid
p304
(I2
I107494
tp305
sVspringer
p306
(I1
I134162
tp307
sV1992
p308
(I1
I122046
tp309
sVjoin
p310
(I2
I93830
tp311
sVwork
p312
(I8
I102507
tp313
sV29.50
p314
(I1
I125198
tp315
sVlisbon'
p316
(I1
I130612
tp317
sVcallicoon
p318
(I1
I124227
tp319
sVmy
p320
(I3
I123078
tp321
sV98.2
p322
(I1
I136756
tp323
sVcarmel
p324
(I1
I99600
tp325
sVoverrid
p326
(I1
I113422
tp327
sVdefer
p328
(I2
I121828
tp329
sV600
p330
(I1
I139101
tp331
sVclimat
p332
(I1
I127865
tp333
sVgive
p334
(I7
I66132
tp335
sV53.2
p336
(I1
I119475
tp337
sVhousehold
p338
(I1
I111802
tp339
sVdigit
p340
(I1
I113556
tp341
sVindic
p342
(I4
I118526
tp343
sVcautiou
p344
(I1
I119561
tp345
sV10,000
p346
(I1
I138953
tp347
sVunavail
p348
(I1
I127276
tp349
sV22,000
p350
(I2
I93072
tp351
sVrig
p352
(I1
I131904
tp353
sV2.2
p354
(I1
I119840
tp355
sVdavid
p356
(I3
I106443
tp357
sVattract
p358
(I4
I109056
tp359
sV51.5
p360
(I1
I45101
tp361
sV51.7
p362
(I1
I128822
tp363
sVend
p364
(I25
I48879
tp365
sV60,000
p366
(I1
I114869
tp367
sVquot
p368
(I2
I115809
tp369
sVordinari
p370
(I1
I133061
tp371
sVclassifi
p372
(I1
I95578
tp373
sVsaid-
p374
(I1
I142051
tp375
sVhow
p376
(I3
I106361
tp377
sV4.15
p378
(I1
I141592
tp379
sVrecoveri
p380
(I2
I132042
tp381
sV25,800
p382
(I1
I131422
tp383
sVenquiri
p384
(I1
I49452
tp385
sVdisappoint
p386
(I2
I89269
tp387
sVnegoti
p388
(I5
I19011
tp389
sV501,000
p390
(I1
I44603
tp391
sV34,700
p392
(I1
I140304
tp393
sVrise
p394
(I20
I111414
tp395
sVrecogn
p396
(I1
I137144
tp397
sVelizabeth
p398
(I1
I140713
tp399
sVchines
p400
(I1
I133876
tp401
sVearlier
p402
(I19
I26585
tp403
sVstainless
p404
(I1
I136846
tp405
sVlab
p406
(I1
I128348
tp407
sVbefor
p408
(I8
I106203
tp409
sVwrong
p410
(I1
I131964
tp411
sV45.5
p412
(I1
I134300
tp413
sVlaw
p414
(I1
I122292
tp415
sVaverag
p416
(I7
I104369
tp417
sVdilut
p418
(I2
I135088
tp419
sVkarachi
p420
(I1
I141312
tp421
sVjwc
p422
(I1
I80562
tp423
sVattempt
p424
(I3
I70299
tp425
sVthird
p426
(I9
I79946
tp427
sVsingapor
p428
(I1
I138795
tp429
sVparkval
p430
(I1
I101435
tp431
sVnike
p432
(I1
I134212
tp433
sVconfeder
p434
(I1
I121328
tp435
sV3,686,000
p436
(I1
I128594
tp437
sVrevolv
p438
(I1
I116974
tp439
sVexclud
p440
(I9
I92281
tp441
sVreceiv
p442
(I7
I74870
tp443
sVfungu
p444
(I1
I110460
tp445
sVmaintain
p446
(I4
I115613
tp447
sVenviron
p448
(I3
I131808
tp449
sVreloc
p450
(I1
I100573
tp451
sVenter
p452
(I3
I97110
tp453
sVgreec
p454
(I1
I94514
tp455
sV516
p456
(I1
I132228
tp457
sVorder
p458
(I7
I129889
tp459
sVbackdrop
p460
(I1
I129238
tp461
sVoper
p462
(I29
I34862
tp463
sVtelecom
p464
(I1
I115431
tp465
sVconsent
p466
(I1
I112323
tp467
sVoffici
p468
(I19
I47814
tp469
sVpayabl
p470
(I8
I101261
tp471
sVbecaus
p472
(I20
I65558
tp473
sV1-15
p474
(I1
I88840
tp475
sV12.2
p476
(I2
I35156
tp477
sV6.5
p478
(I1
I128035
tp479
sV7,054,709
p480
(I1
I142340
tp481
sVlondon
p482
(I6
I84487
tp483
sV12.6
p484
(I1
I8644
tp485
sV12.5
p486
(I3
I101669
tp487
sV15.75
p488
(I1
I121717
tp489
sVjapan
p490
(I11
I126460
tp491
sV12.8
p492
(I1
I129132
tp493
sVmayor
p494
(I1
I124734
tp495
sVfir
p496
(I1
I93091
tp497
sV10.0
p498
(I1
I133738
tp499
sV10.3
p500
(I1
I131482
tp501
sV10.5
p502
(I1
I141632
tp503
sV10.7
p504
(I1
I132991
tp505
sV10.6
p506
(I1
I127955
tp507
sV10.9
p508
(I1
I138228
tp509
sVfix
p510
(I1
I95927
tp511
sV7.25
p512
(I1
I129038
tp513
sV,
(I137
I12604
tp514
sVcrew
p515
(I1
I106323
tp516
sVbetter
p517
(I2
I139998
tp518
sVcarri
p519
(I4
I122840
tp520
sVoffic
p521
(I11
I69448
tp522
sV404
p523
(I1
I127672
tp524
sV16.1
p525
(I1
I126225
tp526
sVonc
p527
(I2
I123182
tp528
sVshear
p529
(I1
I136687
tp530
sVthen
p531
(I3
I102823
tp532
sVthem
p533
(I6
I54783
tp534
sVtourist
p535
(I1
I133199
tp536
sVpbt
p537
(I1
I128418
tp538
sVpress
p539
(I1
I138835
tp540
sVsafe
p541
(I1
I123211
tp542
sV2.4
p543
(I1
I132170
tp544
sVbreak
p545
(I1
I90633
tp546
sVband
p547
(I1
I131372
tp548
sVpromis
p549
(I1
I131060
tp550
sVthey
p551
(I24
I27837
tp552
sVbank
p553
(I32
I78538
tp554
sV1.01
p555
(I1
I115064
tp556
sVchoic
p557
(I1
I88337
tp558
sV1.03
p559
(I1
I94150
tp560
sVleaner
p561
(I1
I87805
tp562
sV1.05
p563
(I1
I89730
tp564
sVmeat
p565
(I2
I87815
tp566
sVopec
p567
(I1
I118936
tp568
sVwilling
p569
(I1
I136985
tp570
sVl
(I1
I101998
tp571
sVbonu
p572
(I2
I114394
tp573
sVasia
p574
(I1
I138578
tp575
sVherald
p576
(I1
I106510
tp577
sVsidi
p578
(I1
I113595
tp579
sVfollow-up
p580
(I1
I136082
tp581
sV114.8
p582
(I1
I132476
tp583
sVeach
p584
(I8
I74942
tp585
sVconsumpt
p586
(I1
I141142
tp587
sVwent
p588
(I2
I123762
tp589
sVeuropean
p590
(I7
I49607
tp591
sVoblig
p592
(I4
I96803
tp593
sVside
p594
(I2
I113778
tp595
sVhirohito
p596
(I1
I139151
tp597
sVbond
p598
(I4
I96848
tp599
sVprohibit
p600
(I1
I138855
tp601
sVresum
p602
(I2
I45446
tp603
sVspanish
p604
(I1
I141842
tp605
sVcmb
p606
(I1
I139280
tp607
sVhigh-dens
p608
(I1
I113546
tp609
sVoppos
p610
(I2
I130427
tp611
sVmdr
p612
(I1
I122254
tp613
sV79.1
p614
(I1
I92453
tp615
sVcommiss
p616
(I10
I49742
tp617
sVmdt
p618
(I1
I99545
tp619
sV120,000
p620
(I1
I138598
tp621
sVdepress
p622
(I3
I110340
tp623
sVevid
p624
(I1
I113797
tp625
sVnewli
p626
(I1
I138028
tp627
sVrd
p628
(I1
I113373
tp629
sVoptim
p630
(I1
I123310
tp631
sV294,650
p632
(I1
I142310
tp633
sVcheck
p634
(I1
I139659
tp635
sVgot
p636
(I1
I69584
tp637
sVvenezuela
p638
(I1
I116718
tp639
sVinop
p640
(I1
I130328
tp641
sVnavig
p642
(I1
I106625
tp643
sVrail
p644
(I1
I140234
tp645
sVu.s.
p646
(I25
I72460
tp647
sVsituat
p648
(I1
I111667
tp649
sVfree
p650
(I2
I82411
tp651
sVstandard
p652
(I3
I88347
tp653
sVmight
p654
(I3
I135765
tp655
sV4,350,000
p656
(I1
I116216
tp657
sS'CORPUS'
p658
(I200
I142450
tp659
sVwidespread
p660
(I2
I125382
tp661
sV3.95
p662
(I1
I119139
tp663
sVpuzzl
p664
(I1
I67788
tp665
sVlouw
p666
(I1
I97604
tp667
sVfilter
p668
(I2
I76957
tp669
sVrenew
p670
(I1
I102680
tp671
sVunabl
p672
(I2
I56036
tp673
sV6.7
p674
(I1
I130069
tp675
sV4,879,000
p676
(I1
I138198
tp677
sVkingdom
p678
(I1
I109294
tp679
sVman-mad
p680
(I1
I102204
tp681
sVhard-press
p682
(I1
I135344
tp683
sVlaps
p684
(I1
I141682
tp685
sV60,000-tonner
p686
(I1
I140364
tp687
sVrand
p688
(I1
I125160
tp689
sVrang
p690
(I8
I58459
tp691
sVnigel
p692
(I1
I126825
tp693
sV910,000
p694
(I1
I138498
tp695
sVstate-run
p696
(I1
I123251
tp697
sVgrade
p698
(I3
I87215
tp699
sV183,000
p700
(I1
I94524
tp701
sVindepend
p702
(I4
I103339
tp703
sVwast
p704
(I1
I128211
tp705
sVcapac
p706
(I2
I120108
tp707
sVrestrict
p708
(I4
I95194
tp709
sVunlik
p710
(I3
I64371
tp711
sValreadi
p712
(I5
I62276
tp713
sV178
p714
(I1
I127632
tp715
sVditch
p716
(I1
I48490
tp717
sVprimari
p718
(I2
I108019
tp719
sV170
p720
(I1
I76937
tp721
sVopen-market
p722
(I1
I131167
tp723
sVlister
p724
(I1
I101814
tp725
sVbancshar
p726
(I1
I134400
tp727
sV2058
p728
(I1
I111249
tp729
sVtop
p730
(I2
I106136
tp731
sVdeutsch
p732
(I1
I109342
tp733
sVamsterdam
p734
(I1
I113999
tp735
sVeuphoria
p736
(I1
I108255
tp737
sVmortgage-rel
p738
(I1
I97202
tp739
sVchicago-bas
p740
(I1
I104670
tp741
sV3.90/4.0
p742
(I1
I119149
tp743
sVton
p744
(I3
I93044
tp745
sVtoo
p746
(I2
I91175
tp747
sVtom
p748
(I1
I117325
tp749
sVheatley
p750
(I1
I133561
tp751
sVint'l
p752
(I1
I136588
tp753
sVdgic
p754
(I1
I100034
tp755
sVurban
p756
(I1
I136202
tp757
sVfebr
p758
(I1
I120078
tp759
sV5-15
p760
(I1
I131582
tp761
sVgeneva
p762
(I1
I137521
tp763
sVmassiv
p764
(I1
I136142
tp765
sV191
p766
(I1
I132739
tp767
sVtool
p768
(I2
I111831
tp769
sVgovernment-own
p770
(I1
I125607
tp771
sVtook
p772
(I2
I119214
tp773
sVcereai
p774
(I1
I130583
tp775
sVincur
p776
(I1
I133150
tp777
sVwestern
p778
(I5
I105984
tp779
sVsomewhat
p780
(I1
I119619
tp781
sVconserv
p782
(I1
I125749
tp783
sVlonger-term
p784
(I1
I136002
tp785
sVtechnic
p786
(I1
I116471
tp787
sV15.5
p788
(I1
I123752
tp789
sVtoronto
p790
(I1
I122121
tp791
sVperil
p792
(I1
I48869
tp793
sVtarget
p794
(I5
I110682
tp795
sVtren
p796
(I1
I100829
tp797
sVprovid
p798
(I16
I77580
tp799
sVhike
p800
(I2
I128231
tp801
sV21,200
p802
(I1
I140324
tp803
sVtree
p804
(I1
I110192
tp805
sVrate
p806
(I19
I94627
tp807
sV35.125
p808
(I1
I76057
tp809
sVfinal
p810
(I8
I108265
tp811
sVproject
p812
(I8
I100044
tp813
sVmatter
p814
(I1
I61843
tp815
sVchee
p816
(I1
I110470
tp817
sViron
p818
(I1
I138618
tp819
sV15.9
p820
(I1
I127256
tp821
sV18.1
p822
(I1
I115074
tp823
sVminut
p824
(I2
I47406
tp825
sV18.4
p826
(I1
I137929
tp827
sV18.7
p828
(I1
I127236
tp829
sVmillen
p830
(I1
I141901
tp831
sV174.7
p832
(I1
I116005
tp833
sV10,771,260
p834
(I1
I127456
tp835
sVrockwell'
p836
(I1
I90048
tp837
sVmaekawa
p838
(I1
I136052
tp839
sV210,000
p840
(I1
I114654
tp841
sVboston
p842
(I4
I103469
tp843
sVenjoin
p844
(I1
I132061
tp845
sVsalvag
p846
(I2
I48591
tp847
sVmine
p848
(I9
I91850
tp849
sV500,000
p850
(I1
I141832
tp851
sVraw
p852
(I3
I84902
tp853
sVmanner
p854
(I1
I137183
tp855
sVoverdu
p856
(I1
I128604
tp857
sVseen
p858
(I4
I110089
tp859
sVseem
p860
(I1
I108825
tp861
sVseek
p862
(I11
I105073
tp863
sVbeckett
p864
(I1
I115005
tp865
sVlbo
p866
(I1
I72450
tp867
sVabroad
p868
(I1
I133209
tp869
sVstrength
p870
(I2
I108226
tp871
sV340,000
p872
(I1
I114614
tp873
sV140,000
p874
(I1
I116994
tp875
sVharper
p876
(I1
I115848
tp877
sV1965
p878
(I1
I103384
tp879
sV60th
p880
(I1
I139131
tp881
sVespeci
p882
(I1
I133140
tp883
sV-
(I14
I97314
tp884
sVgambel
p885
(I1
I132268
tp886
sV2.77
p887
(I1
I127544
tp888
sVclient
p889
(I1
I119363
tp890
sVkaohsiung
p891
(I1
I138558
tp892
sVlasl.l
p893
(I1
I137621
tp894
sVthoroughli
p895
(I1
I137115
tp896
sV478,700
p897
(I1
I116196
tp898
sV2.97
p899
(I1
I138448
tp900
sVgermani
p901
(I5
I94289
tp902
sVltd.
p903
(I1
I108766
tp904
sVthough
p905
(I1
I129542
tp906
sVnon-ferr
p907
(I1
I50657
tp908
sVobject
p909
(I1
I130652
tp910
sVwhat
p911
(I3
I118735
tp912
sVvictoria
p913
(I1
I140224
tp914
sVmarin
p915
(I2
I113267
tp916
sVswiss
p917
(I2
I109538
tp918
sVregular
p919
(I3
I101108
tp920
sValan
p921
(I1
I137253
tp922
sVletter
p923
(I1
I137085
tp924
sV4,124,000
p925
(I1
I123574
tp926
sVphase
p927
(I3
I90772
tp928
sVdrought
p929
(I1
I126235
tp930
sVcoin
p931
(I1
I138924
tp932
sVes
p933
(I1
I122771
tp934
sV94.8
p935
(I1
I139489
tp936
sVtradit
p937
(I3
I123002
tp938
sV28.8
p939
(I1
I126121
tp940
sV323p
p941
(I1
I140673
tp942
sVcathod
p943
(I1
I139399
tp944
sV249,143
p945
(I1
I128368
tp946
sVenviro
p947
(I1
I137223
tp948
sVdomin
p949
(I2
I130691
tp950
sV73,000
p951
(I1
I99825
tp952
sVdoe
p953
(I8
I66851
tp954
sV48.2
p955
(I1
I127356
tp956
sVdeclar
p957
(I3
I134420
tp958
sVafter-tax
p959
(I1
I66214
tp960
sVprt-pay
p961
(I1
I127152
tp962
sVsunbeam
p963
(I1
I136637
tp964
sVdow
p965
(I1
I104359
tp966
sVkheng
p967
(I1
I110480
tp968
sV1987-1991
p969
(I1
I123819
tp970
sVd.
p971
(I1
I121697
tp972
sV336,000
p973
(I1
I132357
tp974
sV3,339,174
p975
(I1
I134577
tp976
sVprobe
p977
(I1
I134920
tp978
sVwriteoff
p979
(I1
I97192
tp980
sV8-1/4
p981
(I1
I139709
tp982
sV7.2
p983
(I2
I133287
tp984
sVadvisori
p985
(I1
I136022
tp986
sV7.0
p987
(I1
I139429
tp988
sVontario
p989
(I1
I135214
tp990
sVpoison
p991
(I1
I137203
tp992
sV7.5
p993
(I3
I113315
tp994
sV7.8
p995
(I1
I139479
tp996
sVnext
p997
(I6
I119373
tp998
sVinvolv
p999
(I5
I107401
tp1000
sVdespit
p1001
(I5
I89205
tp1002
sVbind
p1003
(I1
I135020
tp1004
sVacquir
p1005
(I15
I72153
tp1006
sVexplain
p1007
(I1
I41847
tp1008
sVmalaysian/singapor
p1009
(I1
I118686
tp1010
sVrestaur
p1011
(I1
I44456
tp1012
sVsugar
p1013
(I6
I84424
tp1014
sVbusi
p1015
(I14
I51195
tp1016
sV2.65
p1017
(I1
I115123
tp1018
sVrice
p1019
(I1
I131177
tp1020
sVfield'
p1021
(I1
I127286
tp1022
sVdo
p1023
(I2
I113700
tp1024
sV4.04
p1025
(I1
I96066
tp1026
sV4.03
p1027
(I1
I131302
tp1028
sV400
p1029
(I1
I125870
tp1030
sV10
p1031
(I16
I97759
tp1032
sVde
p1033
(I5
I95797
tp1034
sVstop
p1035
(I3
I122472
tp1036
sVcoast
p1037
(I1
I131700
tp1038
sV94,647,000
p1039
(I1
I96046
tp1040
sV25,000
p1041
(I1
I88486
tp1042
sVunderwritten
p1043
(I1
I106912
tp1044
sVreport
p1045
(I25
I85427
tp1046
sVdr
p1047
(I1
I100879
tp1048
sVconn.
p1049
(I1
I121476
tp1050
sV4.4
p1051
(I2
I136361
tp1052
sVearn
p1053
(I12
I66224
tp1054
sVbar
p1055
(I2
I130476
tp1056
sV50-1/4
p1057
(I1
I106106
tp1058
sVdual-lit
p1059
(I1
I99535
tp1060
sVnon-denatur
p1061
(I1
I107915
tp1062
sVbay
p1063
(I1
I105692
tp1064
sVbag
p1065
(I2
I27818
tp1066
sVbad
p1067
(I1
I132799
tp1068
sV67.6
p1069
(I1
I127416
tp1070
sVcoke
p1071
(I1
I142420
tp1072
sV18
p1073
(I3
I48010
tp1074
sVban
p1075
(I1
I130417
tp1076
sVseptemb
p1077
(I6
I19323
tp1078
sVsteam
p1079
(I1
I106615
tp1080
sV66.2
p1081
(I1
I10063
tp1082
sV:
(I17
I43202
tp1083
sVepac
p1084
(I1
I130495
tp1085
sV66.4
p1086
(I1
I92950
tp1087
sVongo
p1088
(I1
I134034
tp1089
sVw.
p1090
(I1
I121496
tp1091
sVldt
p1092
(I1
I138428
tp1093
sV287,000
p1094
(I1
I94504
tp1095
sVresist
p1096
(I1
I111229
tp1097
sVohio-bas
p1098
(I1
I103246
tp1099
sVresult
p1100
(I20
I48285
tp1101
sVrespons
p1102
(I5
I86739
tp1103
sVcorrupt
p1104
(I1
I141282
tp1105
sViran
p1106
(I1
I141022
tp1107
sV50.7
p1108
(I1
I115888
tp1109
sVbest
p1110
(I1
I117893
tp1111
sVsubject
p1112
(I12
I40890
tp1113
sVawar
p1114
(I2
I111619
tp1115
sVsaid
p1116
(I126
I20655
tp1117
sVk.k
p1118
(I1
I133021
tp1119
sVaway
p1120
(I2
I122634
tp1121
sVplc.the
p1122
(I1
I140952
tp1123
sVirv
p1124
(I1
I129512
tp1125
sVyet
p1126
(I1
I126979
tp1127
sVfigur
p1128
(I7
I98956
tp1129
sVshearon
p1130
(I1
I58818
tp1131
sVoutstand
p1132
(I4
I126131
tp1133
sVdrawn
p1134
(I1
I123809
tp1135
sVtechnodyn
p1136
(I1
I124581
tp1137
sVapproach
p1138
(I4
I71226
tp1139
sV21.203
p1140
(I1
I128085
tp1141
sVattribut
p1142
(I1
I89957
tp1143
sVaccord
p1144
(I6
I51572
tp1145
sVmen
p1146
(I1
I136518
tp1147
sVextend
p1148
(I6
I47634
tp1149
sV40.0
p1150
(I1
I133699
tp1151
sVweak
p1152
(I2
I90078
tp1153
sV33,000
p1154
(I1
I92989
tp1155
sVextens
p1156
(I4
I48240
tp1157
sVextent
p1158
(I2
I106284
tp1159
sV387
p1160
(I1
I103188
tp1161
sVnews
p1162
(I2
I128515
tp1163
sVdebt
p1164
(I6
I78270
tp1165
sV42.5
p1166
(I1
I124532
tp1167
sV15.14
p1168
(I1
I127584
tp1169
sVwx
p1170
(I1
I103035
tp1171
sVunp
p1172
(I1
I116650
tp1173
sVfnv
p1174
(I2
I98927
tp1175
sVprotect
p1176
(I2
I106764
tp1177
sVs.africa
p1178
(I1
I125150
tp1179
sVfault
p1180
(I1
I107391
tp1181
sVhowev
p1182
(I7
I67609
tp1183
sVtlxn
p1184
(I1
I85256
tp1185
sVagainst
p1186
(I11
I104720
tp1187
sV60.8
p1188
(I1
I45091
tp1189
sVcountri
p1190
(I12
I13918
tp1191
sVuncertainti
p1192
(I1
I131846
tp1193
sV60.0
p1194
(I1
I119465
tp1195
sVbran
p1196
(I1
I141352
tp1197
sVprospect
p1198
(I2
I128910
tp1199
sVassur
p1200
(I2
I117117
tp1201
sVtone
p1202
(I1
I134122
tp1203
sVcyclop
p1204
(I1
I136578
tp1205
sVapplianc
p1206
(I2
I100470
tp1207
sVhad
p1208
(I30
I51635
tp1209
sV1.6
p1210
(I1
I132446
tp1211
sV2nd
p1212
(I5
I92503
tp1213
sVkwp
p1214
(I1
I127995
tp1215
sVconglommer
p1216
(I1
I137015
tp1217
sVwider
p1218
(I1
I129599
tp1219
sVtrust
p1220
(I3
I128448
tp1221
sVassum
p1222
(I1
I83107
tp1223
sVsubsidi
p1224
(I1
I97285
tp1225
sVliabil
p1226
(I3
I107103
tp1227
sV3.80
p1228
(I1
I133472
tp1229
sVbeef
p1230
(I1
I87205
tp1231
sVunion
p1232
(I8
I49877
tp1233
sVselloff
p1234
(I1
I104330
tp1235
sVthree
p1236
(I13
I75923
tp1237
sVbeen
p1238
(I26
I31062
tp1239
sV.
(I154
I21870
tp1240
sVspecul
p1241
(I3
I62771
tp1242
sVrevenu
p1243
(I6
I85364
tp1244
sVbeer
p1245
(I1
I140603
tp1246
sVmuch
p1247
(I9
I100270
tp1248
sVbeet
p1249
(I1
I93146
tp1250
sVinterest
p1251
(I17
I57003
tp1252
sVbasic
p1253
(I1
I120640
tp1254
sV3,778,000
p1255
(I1
I115401
tp1256
sVfutur
p1257
(I11
I19716
tp1258
sVbasin
p1259
(I2
I126960
tp1260
sV8,531
p1261
(I1
I113014
tp1262
sVundermin
p1263
(I1
I129820
tp1264
sVbraverman
p1265
(I1
I129502
tp1266
sVlife
p1267
(I5
I81687
tp1268
sVregul
p1269
(I2
I111942
tp1270
sVeastern
p1271
(I1
I126310
tp1272
sVdismiss
p1273
(I1
I102728
tp1274
sVworker
p1275
(I3
I120827
tp1276
sV95,563
p1277
(I1
I139589
tp1278
sVmca
p1279
(I1
I103178
tp1280
sVlift
p1281
(I4
I95149
tp1282
sVadministration'
p1283
(I1
I135580
tp1284
sV165
p1285
(I1
I138438
tp1286
sVspin
p1287
(I2
I66715
tp1288
sV5.3
p1289
(I1
I140773
tp1290
sVgnp
p1291
(I1
I136182
tp1292
sVsave
p1293
(I4
I101352
tp1294
sVtank
p1295
(I1
I77088
tp1296
sV904
p1297
(I1
I124969
tp1298
sV2,745,288
p1299
(I1
I128398
tp1300
sVservic
p1301
(I12
I60966
tp1302
sVproperti
p1303
(I3
I117903
tp1304
sVgasolin
p1305
(I2
I120741
tp1306
sVcommerci
p1307
(I3
I121959
tp1308
sVair
p1309
(I1
I77487
tp1310
sVemploy
p1311
(I4
I98294
tp1312
sVcalcul
p1313
(I1
I120127
tp1314
sVp.j
p1315
(I1
I116630
tp1316
sVmid-atlant
p1317
(I1
I141931
tp1318
sV824.3
p1319
(I1
I134320
tp1320
sVaid
p1321
(I1
I140473
tp1322
sVpharmaci
p1323
(I1
I140553
tp1324
sVseven
p1325
(I10
I110565
tp1326
sVcane
p1327
(I2
I93646
tp1328
sVis
p1329
(I70
I40203
tp1330
sVit
p1331
(I102
I32450
tp1332
sV81.3
p1333
(I1
I131252
tp1334
sVin
p1335
(I123
I25397
tp1336
sVuplift
p1337
(I1
I127296
tp1338
sVboom
p1339
(I2
I108048
tp1340
sVsever
p1341
(I11
I77343
tp1342
sVif
p1343
(I14
I53451
tp1344
sVgrown
p1345
(I1
I140116
tp1346
sVhong
p1347
(I2
I124851
tp1348
sVinventori
p1349
(I3
I116837
tp1350
sVrockwel
p1351
(I1
I88961
tp1352
sVcredit
p1353
(I7
I114522
tp1354
sVperform
p1355
(I1
I89288
tp1356
sV337.3
p1357
(I1
I9851
tp1358
sVmake
p1359
(I17
I65944
tp1360
sVformat
p1361
(I1
I134132
tp1362
sV8,994,000
p1363
(I1
I115975
tp1364
sVsplit
p1365
(I7
I86952
tp1366
sVjungl
p1367
(I1
I137283
tp1368
sVelectro
p1369
(I1
I124435
tp1370
sVrebound
p1371
(I2
I129961
tp1372
sVcomplet
p1373
(I13
I77875
tp1374
sVgalact
p1375
(I1
I122111
tp1376
sV93,100
p1377
(I1
I131472
tp1378
sVnil
p1379
(I3
I101697
tp1380
sVhang
p1381
(I1
I129409
tp1382
sVrain
p1383
(I2
I126320
tp1384
sVhand
p1385
(I2
I108845
tp1386
sVseamen
p1387
(I1
I121397
tp1388
sVrais
p1389
(I15
I68450
tp1390
sVownership
p1391
(I1
I139798
tp1392
sVrefin
p1393
(I1
I116827
tp1394
sV209.3
p1395
(I1
I118226
tp1396
sVcocoa
p1397
(I1
I136766
tp1398
sV9-1/2
p1399
(I1
I108671
tp1400
sV1979
p1401
(I1
I139013
tp1402
sV1978
p1403
(I1
I139003
tp1404
sVthu
p1405
(I1
I127306
tp1406
sV1974
p1407
(I1
I107151
tp1408
sV1970
p1409
(I1
I141272
tp1410
sVcontact
p1411
(I3
I29473
tp1412
sVshortli
p1413
(I1
I141812
tp1414
sVgreatest
p1415
(I1
I91314
tp1416
sVthi
p1417
(I37
I30090
tp1418
sV18.924
p1419
(I1
I128075
tp1420
sVthe
p1421
(I131
I35470
tp1422
sV800
p1423
(I3
I98733
tp1424
sVmoreov
p1425
(I1
I129321
tp1426
sVlegisl
p1427
(I2
I94931
tp1428
sVunchang
p1429
(I9
I24826
tp1430
sVidentifi
p1431
(I2
I125421
tp1432
sVjust
p1433
(I2
I139082
tp1434
sVyen
p1435
(I4
I132926
tp1436
sVcargil
p1437
(I1
I114801
tp1438
sVunfair
p1439
(I2
I130710
tp1440
sVhofer
p1441
(I1
I138825
tp1442
sVgendi
p1443
(I1
I128614
tp1444
sV8.14
p1445
(I1
I135570
tp1446
sV8.16
p1447
(I1
I120177
tp1448
sVbit
p1449
(I2
I112524
tp1450
sVprevious
p1451
(I13
I69594
tp1452
sVeli
p1453
(I1
I140693
tp1454
sV2,020,000
p1455
(I1
I81506
tp1456
sVyamaha
p1457
(I1
I128564
tp1458
sV5,800,00
p1459
(I1
I96623
tp1460
sVroyal
p1461
(I4
I107533
tp1462
sVamoco
p1463
(I2
I127506
tp1464
sVbrisban
p1465
(I1
I140165
tp1466
sVcravath
p1467
(I1
I134812
tp1468
sVspread
p1469
(I2
I129552
tp1470
sVboard
p1471
(I15
I93318
tp1472
sVchinkuli
p1473
(I1
I140443
tp1474
sVnon-u.s.
p1475
(I1
I131532
tp1476
sV282,000
p1477
(I1
I100849
tp1478
sVgave
p1479
(I4
I108346
tp1480
sVapplic
p1481
(I2
I102661
tp1482
sVstos.
p1483
(I1
I141552
tp1484
sVadvis
p1485
(I3
I134842
tp1486
sV515.1
p1487
(I1
I92116
tp1488
sVfirmer
p1489
(I1
I134112
tp1490
sVcampeau
p1491
(I1
I139738
tp1492
sVdisput
p1493
(I3
I98156
tp1494
sVrumor
p1495
(I1
I58106
tp1496
sVbpd
p1497
(I1
I117004
tp1498
sVmeasur
p1499
(I6
I95031
tp1500
sVexxon
p1501
(I1
I132081
tp1502
sV58
p1503
(I1
I99755
tp1504
sVspecif
p1505
(I1
I139858
tp1506
sV55
p1507
(I2
I81477
tp1508
sV57
p1509
(I1
I124090
tp1510
sVhunt
p1511
(I1
I132308
tp1512
sV51
p1513
(I4
I83043
tp1514
sV50
p1515
(I8
I66634
tp1516
sV53
p1517
(I2
I128624
tp1518
sV1.35
p1519
(I1
I115799
tp1520
sVdigniti
p1521
(I1
I120264
tp1522
sVmapara
p1523
(I1
I122682
tp1524
sVconfid
p1525
(I3
I125170
tp1526
sVnight
p1527
(I1
I111932
tp1528
sV1.37
p1529
(I1
I128703
tp1530
sVrespecivt
p1531
(I1
I86875
tp1532
sVright
p1533
(I5
I100397
tp1534
sVold
p1535
(I2
I110877
tp1536
sVdeal
p1537
(I6
I102917
tp1538
sV46.5
p1539
(I1
I115898
tp1540
sVfiduciari
p1541
(I1
I137105
tp1542
sVupham
p1543
(I1
I130030
tp1544
sVmalaysia
p1545
(I2
I101583
tp1546
sVdonald
p1547
(I3
I89317
tp1548
sV573.1
p1549
(I1
I127446
tp1550
sVborg
p1551
(I1
I139340
tp1552
sVindirect
p1553
(I1
I125140
tp1554
sV221.5
p1555
(I1
I92463
tp1556
sV3,217,500
p1557
(I1
I116206
tp1558
sVici
p1559
(I1
I101804
tp1560
sVico
p1561
(I2
I10316
tp1562
sVfor
p1563
(I97
I15650
tp1564
sVpreliminari
p1565
(I2
I119907
tp1566
sVdehesa
p1567
(I1
I95861
tp1568
sVmay-oct
p1569
(I1
I114791
tp1570
sVmay/juli
p1571
(I1
I133966
tp1572
sVcondit
p1573
(I3
I79890
tp1574
sV6,654,000
p1575
(I1
I92920
tp1576
sVgrowers'
p1577
(I1
I126411
tp1578
sVplu
p1579
(I3
I82557
tp1580
sV9.27
p1581
(I1
I129018
tp1582
sV9.25
p1583
(I1
I117517
tp1584
sVcorn
p1585
(I3
I88448
tp1586
sV7-eleven
p1587
(I1
I140563
tp1588
sVconfer
p1589
(I3
I90345
tp1590
sVdiscount
p1591
(I1
I108581
tp1592
sVplc
p1593
(I11
I101862
tp1594
sV2,885,000
p1595
(I1
I115878
tp1596
sVpost
p1597
(I2
I41096
tp1598
sVmedium-
p1599
(I1
I134693
tp1600
sVpois
p1601
(I1
I127875
tp1602
sVslightli
p1603
(I4
I93101
tp1604
sVchoke
p1605
(I1
I112985
tp1606
sVo
(I1
I107638
tp1607
sVrebuf
p1608
(I1
I71109
tp1609
sVyr-ago
p1610
(I1
I44426
tp1611
sVbanker
p1612
(I4
I95588
tp1613
sVcommit
p1614
(I5
I78904
tp1615
sVsept
p1616
(I1
I128554
tp1617
sVproduc
p1618
(I12
I10335
tp1619
sV1,424,000
p1620
(I1
I101050
tp1621
sVtelephon
p1622
(I1
I137541
tp1623
sVpre-tax
p1624
(I3
I96076
tp1625
sVpropros
p1626
(I1
I138018
tp1627
sVcivil
p1628
(I1
I130622
tp1629
sVregist
p1630
(I1
I101794
tp1631
sVbounc
p1632
(I1
I130059
tp1633
sV2,959,029
p1634
(I1
I134537
tp1635
sVprofession
p1636
(I1
I82585
tp1637
sVppn
p1638
(I1
I111239
tp1639
sVdown
p1640
(I13
I108864
tp1641
sVentrepreneur
p1642
(I1
I82537
tp1643
sV48,000
p1644
(I1
I124158
tp1645
sVopportun
p1646
(I6
I109910
tp1647
sVupkeep
p1648
(I1
I136460
tp1649
sV39.5
p1650
(I1
I126176
tp1651
sVstorag
p1652
(I1
I139928
tp1653
sV39.3
p1654
(I1
I115133
tp1655
sV21.7
p1656
(I1
I92086
tp1657
sVsuffici
p1658
(I1
I140793
tp1659
sVsupport
p1660
(I8
I112129
tp1661
sVsovereign
p1662
(I2
I109159
tp1663
sVclass
p1664
(I2
I130877
tp1665
sVspokemsan
p1666
(I1
I103226
tp1667
sV125.0
p1668
(I1
I119926
tp1669
sVreli
p1670
(I1
I139958
tp1671
sVgroundnut
p1672
(I1
I124061
tp1673
sVway
p1674
(I4
I108391
tp1675
sVunseat
p1676
(I1
I136896
tp1677
sV125.8
p1678
(I1
I89865
tp1679
sVphotron
p1680
(I1
I128338
tp1681
sVretali
p1682
(I1
I134960
tp1683
sVsupply/pric
p1684
(I1
I110162
tp1685
sVhead
p1686
(I4
I91120
tp1687
sVmedium
p1688
(I2
I134064
tp1689
sV8.4
p1690
(I1
I140833
tp1691
sVform
p1692
(I11
I72324
tp1693
sVoffer
p1694
(I21
I70847
tp1695
sVforc
p1696
(I6
I54720
tp1697
sV798,289
p1698
(I1
I134497
tp1699
sV262,738
p1700
(I1
I134517
tp1701
sVlawn
p1702
(I1
I136657
tp1703
sVsubsidis
p1704
(I2
I127094
tp1705
sVbere
p1706
(I1
I131914
tp1707
sVurg
p1708
(I2
I113729
tp1709
sV228
p1710
(I1
I102262
tp1711
sV8,500
p1712
(I1
I113073
tp1713
sVanalyst
p1714
(I7
I63227
tp1715
sV639.7
p1716
(I1
I134310
tp1717
sV6,959,000
p1718
(I1
I115391
tp1719
sVwhites-onli
p1720
(I1
I125265
tp1721
sV16,300
p1722
(I1
I140344
tp1723
sVintern
p1724
(I22
I12327
tp1725
sVtell
p1726
(I1
I135520
tp1727
sVbreak-up
p1728
(I1
I137025
tp1729
sVinaccur
p1730
(I1
I103722
tp1731
sV3.5
p1732
(I3
I67581
tp1733
sVabsenc
p1734
(I1
I129492
tp1735
sV137.8
p1736
(I1
I119830
tp1737
sVretir
p1738
(I1
I134202
tp1739
sVgleneagl
p1740
(I1
I140633
tp1741
sV150
p1742
(I3
I118658
tp1743
sV152
p1744
(I1
I121338
tp1745
sVbankamerica
p1746
(I1
I139808
tp1747
sVpetit
p1748
(I1
I87576
tp1749
sVallegheni
p1750
(I2
I130808
tp1751
sVconsciou
p1752
(I1
I139878
tp1753
sVzambian
p1754
(I1
I122741
tp1755
sVproven
p1756
(I1
I111374
tp1757
sVdrive
p1758
(I1
I130108
tp1759
sV''
p1760
(I38
I68602
tp1761
sVkhj
p1762
(I1
I103329
tp1763
sVexist
p1764
(I4
I116509
tp1765
sVcarryov
p1766
(I1
I39068
tp1767
sVrequest
p1768
(I1
I137055
tp1769
sVship
p1770
(I5
I106389
tp1771
sVdealer
p1772
(I8
I108500
tp1773
sV11,489,000
p1774
(I1
I128663
tp1775
sVni
p1776
(I1
I132680
tp1777
sVsmelt
p1778
(I1
I105793
tp1779
sVno
p1780
(I14
I55158
tp1781
sVinterst
p1782
(I1
I80262
tp1783
sVholli
p1784
(I1
I117999
tp1785
sVstake
p1786
(I10
I63057
tp1787
sVwhen
p1788
(I10
I71119
tp1789
sVflood
p1790
(I1
I108815
tp1791
sVstagnant
p1792
(I1
I136876
tp1793
sVtest
p1794
(I1
I117823
tp1795
sVappetit
p1796
(I1
I129692
tp1797
sVshort-term
p1798
(I3
I135687
tp1799
sVroll
p1800
(I1
I119667
tp1801
sVnv
p1802
(I1
I137511
tp1803
sVsteamship
p1804
(I1
I106754
tp1805
sVlegitim
p1806
(I1
I120187
tp1807
sV's
p1808
(I65
I58828
tp1809
sV1,555,000
p1810
(I1
I100909
tp1811
sVexpress'
p1812
(I1
I67212
tp1813
sVnorstar
p1814
(I1
I124207
tp1815
sVfell
p1816
(I10
I103797
tp1817
sVreign
p1818
(I1
I139161
tp1819
sVconsid
p1820
(I8
I58116
tp1821
sVcooper
p1822
(I1
I124649
tp1823
sVweekend
p1824
(I1
I104084
tp1825
sV17-mar-1987
p1826
(I1
I124197
tp1827
sVbillion
p1828
(I22
I10083
tp1829
sVwarn
p1830
(I1
I130137
tp1831
sVundisclos
p1832
(I5
I100519
tp1833
sVnon-prescript
p1834
(I1
I136440
tp1835
sVpacer
p1836
(I1
I113432
tp1837
sV2,198,000
p1838
(I1
I81609
tp1839
sVcheaper
p1840
(I1
I139968
tp1841
sVottawa
p1842
(I1
I117277
tp1843
sVfso
p1844
(I1
I139449
tp1845
sVtime
p1846
(I11
I72718
tp1847
sVn.j.
p1848
(I1
I103168
tp1849
sVserious
p1850
(I1
I110847
tp1851
sVdaili
p1852
(I3
I119513
tp1853
sVcorpu
p1854
(I1
I116748
tp1855
sVshop
p1856
(I1
I139778
tp1857
sVrok
p1858
(I1
I88971
tp1859
sVweek-long
p1860
(I1
I135550
tp1861
sVchain
p1862
(I1
I109761
tp1863
sV35.0
p1864
(I1
I126023
tp1865
sVconsum
p1866
(I11
I29920
tp1867
sVfocus
p1868
(I1
I63593
tp1869
sVkiena
p1870
(I1
I115240
tp1871
sVnon-prt
p1872
(I1
I126845
tp1873
sVsignific
p1874
(I3
I89177
tp1875
sVmill
p1876
(I2
I116564
tp1877
sVrow
p1878
(I1
I113690
tp1879
sVdecid
p1880
(I6
I61954
tp1881
sV92
p1882
(I1
I107955
tp1883
sVdepend
p1884
(I1
I123221
tp1885
sVzone
p1886
(I2
I120226
tp1887
sVtariff
p1888
(I1
I134940
tp1889
sV101-1/4
p1890
(I1
I108681
tp1891
sVenvironment
p1892
(I1
I132258
tp1893
sV0
(I1
I134970
tp1894
sVvicta
p1895
(I1
I136647
tp1896
sVdecis
p1897
(I8
I47425
tp1898
sV96
p1899
(I2
I115928
tp1900
sV483,000
p1901
(I1
I114928
tp1902
sVbrown
p1903
(I1
I136945
tp1904
sVshipbreak
p1905
(I1
I138338
tp1906
sVsourc
p1907
(I10
I88597
tp1908
sVeurosterl
p1909
(I1
I108038
tp1910
sVminist
p1911
(I8
I97457
tp1912
sV1990
p1913
(I2
I98799
tp1914
sVmay-apr
p1915
(I1
I140384
tp1916
sV1993
p1917
(I1
I136162
tp1918
sVfeasibl
p1919
(I1
I121866
tp1920
sVlynch
p1921
(I1
I128978
tp1922
sVoctob
p1923
(I3
I52646
tp1924
sV1995
p1925
(I1
I136172
tp1926
sVmoura
p1927
(I1
I121318
tp1928
sVfailur
p1929
(I2
I121046
tp1930
sV469,900
p1931
(I1
I133316
tp1932
sVadministr
p1933
(I1
I131758
tp1934
sVlevel
p1935
(I13
I55024
tp1936
sVdid
p1937
(I5
I41383
tp1938
sVdisqualifi
p1939
(I1
I103439
tp1940
sVbrother
p1941
(I6
I58333
tp1942
sVend-februari
p1943
(I1
I93626
tp1944
sVp
(I1
I107628
tp1945
sVquick
p1946
(I1
I135862
tp1947
sVlever
p1948
(I1
I140823
tp1949
sVdiv
p1950
(I11
I80841
tp1951
sVcloudi
p1952
(I1
I129248
tp1953
sVclearanc
p1954
(I1
I80242
tp1955
sVprevent
p1956
(I2
I135793
tp1957
sV55.7
p1958
(I1
I81639
tp1959
sVtrend
p1960
(I1
I90715
tp1961
sV2.62
p1962
(I1
I132789
tp1963
sV2,445,423
p1964
(I1
I134587
tp1965
sVcompens
p1966
(I1
I106303
tp1967
sVsign
p1968
(I8
I105471
tp1969
sVcost
p1970
(I18
I55401
tp1971
sValfr
p1972
(I1
I135244
tp1973
sVport
p1974
(I4
I97240
tp1975
sVcargo
p1976
(I7
I84758
tp1977
sVlennox
p1978
(I1
I133996
tp1979
sVappear
p1980
(I2
I118620
tp1981
sVcurrenc
p1982
(I5
I107813
tp1983
sVringgit
p1984
(I1
I101735
tp1985
sVumar.l
p1986
(I1
I128162
tp1987
sVfavour
p1988
(I8
I95497
tp1989
sVuniform
p1990
(I1
I140017
tp1991
sVcurrent
p1992
(I18
I56207
tp1993
sVgome
p1994
(I1
I121308
tp1995
sVappeal
p1996
(I3
I103198
tp1997
sVboost
p1998
(I3
I123781
tp1999
sVhonour
p2000
(I1
I120098
tp2001
sVgener
p2002
(I14
I97985
tp2003
sVfrench
p2004
(I1
I93254
tp2005
sVwater
p2006
(I2
I124023
tp2007
sVupstat
p2008
(I1
I124295
tp2009
sVpromissori
p2010
(I1
I128584
tp2011
sVaddress
p2012
(I1
I90335
tp2013
sValong
p2014
(I3
I116481
tp2015
sVspeci
p2016
(I1
I111354
tp2017
sVafg
p2018
(I1
I136965
tp2019
sVwait
p2020
(I1
I137065
tp2021
sVbox
p2022
(I2
I135452
tp2023
sVmid-april
p2024
(I1
I130167
tp2025
sVcanadian
p2026
(I10
I76820
tp2027
sVshift
p2028
(I2
I125236
tp2029
sVbor
p2030
(I1
I139300
tp2031
sVworldwid
p2032
(I5
I60912
tp2033
sVfinnish
p2034
(I1
I119677
tp2035
sV57.0
p2036
(I1
I119455
tp2037
sVpeterson/purittan
p2038
(I1
I111717
tp2039
sVcorp
p2040
(I51
I71511
tp2041
sVend-januari
p2042
(I1
I131262
tp2043
sVmontreal
p2044
(I1
I137889
tp2045
sVnat'l
p2046
(I1
I137988
tp2047
sVelect
p2048
(I1
I125275
tp2049
sV1,000
p2050
(I1
I137331
tp2051
sVextra
p2052
(I2
I133443
tp2053
sVprefer
p2054
(I1
I124639
tp2055
sVfbc
p2056
(I1
I130847
tp2057
sVstandwel
p2058
(I1
I122672
tp2059
sVseattl
p2060
(I1
I124841
tp2061
sV1st
p2062
(I7
I92776
tp2063
sVinstal
p2064
(I1
I137391
tp2065
sV95.7
p2066
(I1
I138218
tp2067
sVmobil
p2068
(I2
I116314
tp2069
sVmarket
p2070
(I34
I49968
tp2071
sVillicitli
p2072
(I1
I141292
tp2073
sVjan
p2074
(I13
I92557
tp2075
sV325.6
p2076
(I1
I140892
tp2077
sVwane
p2078
(I1
I129702
tp2079
sVvisit
p2080
(I2
I120197
tp2081
sVimpos
p2082
(I2
I120621
tp2083
sVlive
p2084
(I3
I135590
tp2085
sVoutright
p2086
(I1
I131362
tp2087
sVperu
p2088
(I1
I137243
tp2089
sVaustralian
p2090
(I5
I82111
tp2091
sVtoday
p2092
(I24
I46692
tp2093
sVcapit
p2094
(I16
I59498
tp2095
sV3-1/8
p2096
(I1
I104441
tp2097
sVnstc.tok
p2098
(I1
I132906
tp2099
sV15.37
p2100
(I1
I127554
tp2101
sVclub
p2102
(I1
I141462
tp2103
sVpeopl
p2104
(I3
I120381
tp2105
sVclaus
p2106
(I1
I130759
tp2107
sV12-1/2
p2108
(I1
I117267
tp2109
sVenhanc
p2110
(I4
I67260
tp2111
sV9,394,000
p2112
(I1
I116015
tp2113
sVthree-
p2114
(I1
I129058
tp2115
sVexamin
p2116
(I2
I48093
tp2117
sVventur
p2118
(I6
I96956
tp2119
sV3-3/8
p2120
(I1
I104573
tp2121
sVeffort
p2122
(I7
I48500
tp2123
sVbehalf
p2124
(I2
I99028
tp2125
sVreligi
p2126
(I1
I141961
tp2127
sVdemolish
p2128
(I1
I138378
tp2129
sVtokyo
p2130
(I4
I124659
tp2131
sVferri
p2132
(I1
I106116
tp2133
sVprepar
p2134
(I2
I123049
tp2135
sVrko'
p2136
(I1
I102651
tp2137
sVfocu
p2138
(I2
I90990
tp2139
sVzhao
p2140
(I1
I133091
tp2141
sVcan
p2142
(I14
I68307
tp2143
sVinadequ
p2144
(I1
I135852
tp2145
sVimped
p2146
(I1
I140027
tp2147
sVhinkley
p2148
(I1
I138118
tp2149
sVpurpos
p2150
(I5
I104874
tp2151
sVclaim
p2152
(I4
I105271
tp2153
sVanti-infl
p2154
(I1
I121075
tp2155
sVboycot
p2156
(I1
I142041
tp2157
sVtrump
p2158
(I1
I104660
tp2159
sVkenneth
p2160
(I1
I122953
tp2161
sVpredict
p2162
(I2
I73184
tp2163
sV1,916,000
p2164
(I1
I135136
tp2165
sV112,500
p2166
(I1
I123949
tp2167
sVexplos
p2168
(I1
I136092
tp2169
sVagent
p2170
(I1
I131562
tp2171
sVheard
p2172
(I1
I135234
tp2173
sVn.y.
p2174
(I1
I142190
tp2175
sVcouncil
p2176
(I2
I46635
tp2177
sVagenc
p2178
(I4
I96690
tp2179
sV230
p2180
(I1
I140932
tp2181
sVoccur
p2182
(I3
I112378
tp2183
sV555.6
p2184
(I1
I140872
tp2185
sVlusaka
p2186
(I1
I123359
tp2187
sVwinter
p2188
(I1
I114644
tp2189
sVeconomi
p2190
(I3
I95759
tp2191
sV1
(I13
I18214
tp2192
sVsunday
p2193
(I1
I64399
tp2194
sVvital
p2195
(I2
I122973
tp2196
sVnyn
p2197
(I1
I126616
tp2198
sVfourth
p2199
(I2
I86793
tp2200
sVrecapit
p2201
(I2
I118329
tp2202
sVaerospac
p2203
(I1
I137005
tp2204
sVafternoon
p2205
(I1
I112313
tp2206
sVproduct
p2207
(I24
I91571
tp2208
sV3.44
p2209
(I1
I94170
tp2210
sVsunter
p2211
(I1
I130857
tp2212
sVmay
p2213
(I25
I62799
tp2214
sVdisagre
p2215
(I1
I130466
tp2216
sVclone
p2217
(I1
I110968
tp2218
sVuse
p2219
(I9
I111059
tp2220
sVsouthern
p2221
(I3
I126932
tp2222
sVconstraint
p2223
(I1
I140066
tp2224
sVjacqu
p2225
(I1
I98349
tp2226
sVlevi
p2227
(I2
I107794
tp2228
sV4th
p2229
(I16
I5113
tp2230
sVpasseng
p2231
(I1
I106313
tp2232
sVhediard
p2233
(I1
I140663
tp2234
sVdate
p2235
(I1
I130177
tp2236
sVsuch
p2237
(I11
I109178
tp2238
sVmgl
p2239
(I1
I115044
tp2240
sVdata
p2241
(I3
I96233
tp2242
sVgrow
p2243
(I3
I125495
tp2244
sVhoc
p2245
(I1
I118009
tp2246
sVneco
p2247
(I1
I137809
tp2248
sVstress
p2249
(I2
I133180
tp2250
sVpractic
p2251
(I1
I103712
tp2252
sVliquid
p2253
(I6
I102272
tp2254
sV16,000
p2255
(I1
I137591
tp2256
sV49-1/2
p2257
(I1
I105974
tp2258
sVdivid
p2259
(I1
I65889
tp2260
sVexplicit
p2261
(I1
I136102
tp2262
sV34.23
p2263
(I1
I138657
tp2264
sVsu
p2265
(I1
I130837
tp2266
sVinform
p2267
(I4
I121583
tp2268
sVswitch
p2269
(I2
I138707
tp2270
sV305,000
p2271
(I1
I114811
tp2272
sVso
p2273
(I4
I108112
tp2274
sVdeposit
p2275
(I5
I94573
tp2276
sVsc
p2277
(I1
I113383
tp2278
sVnynex
p2279
(I1
I126606
tp2280
sVtalk
p2281
(I7
I45374
tp2282
sVzeebrugg
p2283
(I1
I106183
tp2284
sV12.75
p2285
(I1
I94001
tp2286
sVttx
p2287
(I1
I126586
tp2288
sV81
p2289
(I2
I123261
tp2290
sVanticip
p2291
(I5
I104030
tp2292
sVgradual
p2293
(I2
I130779
tp2294
sVapprov
p2295
(I13
I82747
tp2296
sVxuto
p2297
(I1
I118783
tp2298
sVkong
p2299
(I2
I124870
tp2300
sVarm
p2301
(I1
I135657
tp2302
sVincreas
p2303
(I24
I56394
tp2304
sVspinoff
p2305
(I2
I58197
tp2306
sVequip
p2307
(I2
I130040
tp2308
sV557,000
p2309
(I1
I81496
tp2310
sVstill
p2311
(I6
I105562
tp2312
sVmainli
p2313
(I8
I120650
tp2314
sVdynam
p2315
(I2
I113576
tp2316
sVentiti
p2317
(I2
I120245
tp2318
sVdbrn
p2319
(I1
I92493
tp2320
sVgroup
p2321
(I30
I29501
tp2322
sVmonitor
p2323
(I2
I111648
tp2324
sV13.74
p2325
(I1
I93636
tp2326
sVpolici
p2327
(I7
I87713
tp2328
sVpassag
p2329
(I1
I135872
tp2330
sVjim
p2331
(I1
I80542
tp2332
sVmaiz
p2333
(I3
I124130
tp2334
sVaviv
p2335
(I1
I99955
tp2336
sVmail
p2337
(I1
I125983
tp2338
sVmain
p2339
(I5
I118427
tp2340
sV488,759
p2341
(I1
I138268
tp2342
sV936
p2343
(I1
I107523
tp2344
sV133,000
p2345
(I1
I122056
tp2346
sVnon
p2347
(I1
I135010
tp2348
sVhalt
p2349
(I2
I128496
tp2350
sV3
(I4
I117651
tp2351
sVfinanci
p2352
(I13
I55848
tp2353
sV100,000
p2354
(I1
I123939
tp2355
sVjame
p2356
(I1
I134172
tp2357
sVshatter
p2358
(I1
I135892
tp2359
sViniti
p2360
(I3
I84351
tp2361
sVnation
p2362
(I13
I120855
tp2363
sV55,000
p2364
(I1
I121407
tp2365
sVinterview
p2366
(I3
I95871
tp2367
sVunadjust
p2368
(I1
I136321
tp2369
sVtherebi
p2370
(I1
I117107
tp2371
sVhalf
p2372
(I7
I92848
tp2373
sVnot
p2374
(I41
I41437
tp2375
sVmolass
p2376
(I1
I93665
tp2377
sVnow
p2378
(I17
I83127
tp2379
sV4,000-strong
p2380
(I2
I98761
tp2381
sVdiscuss
p2382
(I3
I61815
tp2383
sVnor
p2384
(I1
I124217
tp2385
sVintroduct
p2386
(I2
I136470
tp2387
sV14.5
p2388
(I2
I44613
tp2389
sV14.4
p2390
(I1
I115173
tp2391
sVterm
p2392
(I13
I83370
tp2393
sVname
p2394
(I8
I87043
tp2395
sV24.4
p2396
(I1
I134290
tp2397
sVdrop
p2398
(I11
I95633
tp2399
sV24.2
p2400
(I2
I86905
tp2401
sVsepar
p2402
(I3
I118823
tp2403
sV22.6
p2404
(I2
I135166
tp2405
sVjanuari
p2406
(I15
I93849
tp2407
sVreintroduc
p2408
(I2
I16588
tp2409
sVstockhold
p2410
(I3
I112285
tp2411
sVbuyer
p2412
(I2
I129791
tp2413
sVreplac
p2414
(I4
I78117
tp2415
sVindividu
p2416
(I1
I83360
tp2417
sVreceipt
p2418
(I3
I121526
tp2419
sVcontinu
p2420
(I9
I53594
tp2421
sVec
p2422
(I5
I49360
tp2423
sV9,922,000
p2424
(I1
I132417
tp2425
sVshipown
p2426
(I1
I106793
tp2427
sVredistribut
p2428
(I1
I27557
tp2429
sVgencorp'
p2430
(I1
I137173
tp2431
sVsignificantli
p2432
(I3
I125955
tp2433
sVbegun
p2434
(I4
I119169
tp2435
sVyear
p2436
(I72
I42170
tp2437
sVdistributor
p2438
(I1
I128574
tp2439
sVet
p2440
(I1
I112786
tp2441
sVhappen
p2442
(I3
I104481
tp2443
sVdispos
p2444
(I1
I137729
tp2445
sV8.75
p2446
(I1
I117507
tp2447
sVcanada
p2448
(I8
I105702
tp2449
sV1.485
p2450
(I1
I99985
tp2451
sV3rd
p2452
(I3
I116084
tp2453
sVspace
p2454
(I2
I113286
tp2455
sVprofit
p2456
(I23
I44661
tp2457
sV92,552
p2458
(I1
I139579
tp2459
sVunderwrit
p2460
(I1
I83350
tp2461
sVbli
p2462
(I1
I104593
tp2463
sVdutch
p2464
(I3
I97538
tp2465
sV1.51
p2466
(I1
I115789
tp2467
sVastral
p2468
(I1
I133522
tp2469
sVsensor
p2470
(I1
I113536
tp2471
sVcorrect
p2472
(I2
I116266
tp2473
sVlag
p2474
(I1
I77143
tp2475
sVquito
p2476
(I1
I120284
tp2477
sVnipsco
p2478
(I1
I132719
tp2479
sVhull
p2480
(I1
I106481
tp2481
sVdomest
p2482
(I5
I112425
tp2483
sVmillion
p2484
(I1
I138408
tp2485
sVargu
p2486
(I2
I130672
tp2487
sVhectar
p2488
(I2
I132819
tp2489
sV4,131,000
p2490
(I1
I123584
tp2491
sVplea
p2492
(I1
I130896
tp2493
sVstate-bas
p2494
(I1
I140264
tp2495
sVhefti
p2496
(I1
I128861
tp2497
sVore
p2498
(I2
I122895
tp2499
sVcard
p2500
(I3
I117297
tp2501
sVcare
p2502
(I3
I111774
tp2503
sVreflect
p2504
(I8
I66951
tp2505
sVbritish
p2506
(I7
I92145
tp2507
sVmotion
p2508
(I1
I135274
tp2509
sVturn
p2510
(I2
I79473
tp2511
sV526,000
p2512
(I1
I123300
tp2513
sVplace
p2514
(I9
I62330
tp2515
sVgordon
p2516
(I1
I140533
tp2517
sVministri
p2518
(I4
I94823
tp2519
sVhalf-mln
p2520
(I1
I141152
tp2521
sVprincipl
p2522
(I6
I102588
tp2523
sVthink
p2524
(I1
I139191
tp2525
sVfirst
p2526
(I17
I36730
tp2527
sVorigin
p2528
(I2
I103256
tp2529
sV52
p2530
(I2
I133404
tp2531
sV621
p2532
(I1
I131884
tp2533
sVsuspend
p2534
(I1
I120157
tp2535
sVdirectli
p2536
(I1
I127056
tp2537
sV2,300,000
p2538
(I1
I118348
tp2539
sVquestion
p2540
(I2
I117430
tp2541
sVbeverag
p2542
(I1
I140513
tp2543
sVone
p2544
(I39
I6450
tp2545
sVacquisit
p2546
(I15
I70497
tp2547
sV44-year-old
p2548
(I1
I141182
tp2549
sVvote
p2550
(I6
I111869
tp2551
sVdrove
p2552
(I1
I64868
tp2553
sVopen
p2554
(I3
I49414
tp2555
sVtomorrow
p2556
(I7
I31429
tp2557
sVsize
p2558
(I2
I127037
tp2559
sVsheep
p2560
(I1
I136677
tp2561
sVavail
p2562
(I7
I117751
tp2563
sVgiven
p2564
(I9
I91948
tp2565
sVarco
p2566
(I1
I132071
tp2567
sVsilent
p2568
(I1
I64723
tp2569
sVconvent
p2570
(I1
I107141
tp2571
sVlanka
p2572
(I1
I110212
tp2573
sVtrillion
p2574
(I1
I127564
tp2575
sV45,696
p2576
(I1
I137859
tp2577
sVplastic
p2578
(I1
I136995
tp2579
sVciti
p2580
(I5
I121104
tp2581
sVdemocrat-control
p2582
(I1
I135982
tp2583
sV1,847,000
p2584
(I1
I100839
tp2585
sVwhite
p2586
(I4
I93553
tp2587
sV1,924,000
p2588
(I1
I99805
tp2589
sVcite
p2590
(I2
I103514
tp2591
sV91.6
p2592
(I1
I139459
tp2593
sVcourier
p2594
(I1
I71501
tp2595
sVthat
p2596
(I45
I37265
tp2597
sVprovinc
p2598
(I1
I140453
tp2599
sVseason
p2600
(I4
I114266
tp2601
sVspecifi
p2602
(I1
I134900
tp2603
sVundertaken
p2604
(I1
I133599
tp2605
sVbroadcast
p2606
(I2
I102690
tp2607
sV28.9
p2608
(I1
I128783
tp2609
sVquak
p2610
(I1
I120216
tp2611
sV36,480,000
p2612
(I1
I95986
tp2613
sVholder
p2614
(I3
I128310
tp2615
sVthan
p2616
(I18
I54425
tp2617
sV28.6
p2618
(I1
I132456
tp2619
sV11
p2620
(I4
I99555
tp2621
sVwide
p2622
(I4
I102018
tp2623
sV13
p2624
(I3
I95287
tp2625
sV12
p2626
(I12
I16778
tp2627
sV15
p2628
(I15
I75646
tp2629
sV14
p2630
(I9
I81350
tp2631
sV17
p2632
(I5
I99417
tp2633
sV16
p2634
(I2
I115304
tp2635
sV19
p2636
(I5
I98651
tp2637
sVrival
p2638
(I1
I77153
tp2639
sVconglomer
p2640
(I2
I109723
tp2641
sVexampl
p2642
(I1
I140126
tp2643
sVbrown-forman
p2644
(I1
I0
tp2645
sVcomputer
p2646
(I1
I142260
tp2647
sVbalanc
p2648
(I5
I82693
tp2649
sVwere
p2650
(I28
I50695
tp2651
sVposit
p2652
(I8
I68181
tp2653
sVtractor
p2654
(I1
I101573
tp2655
sVseri
p2656
(I1
I98506
tp2657
sVand
p2658
(I122
I33629
tp2659
sVsao
p2660
(I1
I121177
tp2661
sVsan
p2662
(I1
I137371
tp2663
sVangel
p2664
(I2
I90316
tp2665
sVcraig
p2666
(I1
I133551
tp2667
sVpremier
p2668
(I1
I133081
tp2669
sVsag
p2670
(I1
I135677
tp2671
sVani
p2672
(I9
I19618
tp2673
sValleg
p2674
(I3
I49849
tp2675
sVprt
p2676
(I1
I126748
tp2677
sVsay
p2678
(I10
I84604
tp2679
sVpaulo
p2680
(I1
I121187
tp2681
sVrent
p2682
(I1
I139469
tp2683
sV10-year
p2684
(I1
I108651
tp2685
sVsaw
p2686
(I2
I108786
tp2687
sVamort
p2688
(I2
I125778
tp2689
sVnkkt.tok
p2690
(I1
I133031
tp2691
sVengin
p2692
(I2
I115658
tp2693
sVsoutheast
p2694
(I2
I116583
tp2695
sVinfight
p2696
(I1
I135735
tp2697
sVnote
p2698
(I26
I42935
tp2699
sVjefferson
p2700
(I1
I115500
tp2701
sVtake
p2702
(I14
I91400
tp2703
sVexploratori
p2704
(I1
I113113
tp2705
sV1,650
p2706
(I1
I136836
tp2707
sVwci
p2708
(I1
I142380
tp2709
sV600,000
p2710
(I1
I124542
tp2711
sVchannel
p2712
(I1
I122751
tp2713
sV200
p2714
(I2
I83632
tp2715
sVbegin
p2716
(I5
I74206
tp2717
sVincorpor
p2718
(I2
I109742
tp2719
sVnormal
p2720
(I2
I107084
tp2721
sVbuffer
p2722
(I2
I118696
tp2723
sVprice
p2724
(I33
I50317
tp2725
sVgencorp
p2726
(I2
I102389
tp2727
sVpaid
p2728
(I8
I77208
tp2729
sVstate-own
p2730
(I2
I121417
tp2731
sVrender
p2732
(I1
I137075
tp2733
sVfcc
p2734
(I1
I103138
tp2735
sVdrummond
p2736
(I1
I140543
tp2737
sVtract
p2738
(I1
I131680
tp2739
sVamerica
p2740
(I2
I101079
tp2741
sVcommerzbank
p2742
(I1
I109332
tp2743
sVlarner
p2744
(I1
I106471
tp2745
sVaxp
p2746
(I2
I57594
tp2747
sV8,507
p2748
(I1
I113083
tp2749
sVrenam
p2750
(I1
I87431
tp2751
sV1,500,000
p2752
(I1
I141911
tp2753
sVlater
p2754
(I4
I78162
tp2755
sVsale
p2756
(I32
I39882
tp2757
sVquantiti
p2758
(I1
I141222
tp2759
sVmeanwhil
p2760
(I3
I98818
tp2761
sVb.c
p2762
(I1
I142440
tp2763
sVcrank
p2764
(I1
I140653
tp2765
sVsenior
p2766
(I2
I121755
tp2767
sV30,000
p2768
(I2
I107161
tp2769
sVsteadi
p2770
(I1
I117218
tp2771
sV185.9
p2772
(I1
I128673
tp2773
sV614,000
p2774
(I1
I123544
tp2775
sVevent
p2776
(I2
I129673
tp2777
sV102.9
p2778
(I1
I118112
tp2779
sVsurplus
p2780
(I1
I141042
tp2781
sVshow
p2782
(I8
I109567
tp2783
sVgerman
p2784
(I1
I109557
tp2785
sVso-cal
p2786
(I2
I56635
tp2787
sVcheap
p2788
(I1
I109101
tp2789
sVmooni
p2790
(I1
I141742
tp2791
sVsouthwestern
p2792
(I1
I136776
tp2793
sVsponsorship
p2794
(I1
I117989
tp2795
sV285,000
p2796
(I1
I124552
tp2797
sVground
p2798
(I2
I77551
tp2799
sVonli
p2800
(I7
I110896
tp2801
sVgulf
p2802
(I3
I31501
tp2803
sVtreasuri
p2804
(I2
I128881
tp2805
sVtransact
p2806
(I10
I37962
tp2807
sVdick
p2808
(I1
I82547
tp2809
sVactiv
p2810
(I3
I129361
tp2811
sVpump
p2812
(I2
I112562
tp2813
sVwood
p2814
(I1
I126865
tp2815
sVblack
p2816
(I1
I142131
tp2817
sVnvid
p2818
(I1
I116074
tp2819
sVstabilis
p2820
(I1
I141302
tp2821
sVwool
p2822
(I1
I102194
tp2823
sVover
p2824
(I19
I79070
tp2825
sV44.8
p2826
(I1
I42905
tp2827
sVcarolina
p2828
(I1
I121949
tp2829
sVnearli
p2830
(I2
I119946
tp2831
sVvariou
p2832
(I4
I106709
tp2833
sVget
p2834
(I4
I75302
tp2835
sVcannon
p2836
(I2
I117527
tp2837
sVcontractu
p2838
(I1
I139908
tp2839
sVscurry-rainbow
p2840
(I1
I113343
tp2841
sVmedia
p2842
(I1
I142390
tp2843
sVoutlet
p2844
(I1
I122992
tp2845
sVchemic
p2846
(I2
I101843
tp2847
sVpetroleum-bas
p2848
(I1
I136282
tp2849
sV251
p2850
(I1
I137789
tp2851
sVrequir
p2852
(I8
I116865
tp2853
sVprime
p2854
(I6
I87971
tp2855
sVsideway
p2856
(I1
I129218
tp2857
sValuminum
p2858
(I2
I101060
tp2859
sV6.6
p2860
(I1
I136351
tp2861
sVhostil
p2862
(I1
I136906
tp2863
sVmalaysian
p2864
(I1
I110368
tp2865
sVborrow
p2866
(I1
I108167
tp2867
sVyield
p2868
(I5
I107965
tp2869
sV2,631,000
p2870
(I1
I132367
tp2871
sVirrespect
p2872
(I1
I140106
tp2873
sVtallow
p2874
(I1
I131522
tp2875
sVtelecommun
p2876
(I1
I115451
tp2877
sVwhere
p2878
(I4
I68262
tp2879
sV6.2
p2880
(I1
I105261
tp2881
sVsalomon
p2882
(I1
I129712
tp2883
sVdioxin-rel
p2884
(I1
I132486
tp2885
sVnoth
p2886
(I1
I141032
tp2887
sVmaximum
p2888
(I1
I137749
tp2889
sVinterprovinci
p2890
(I1
I113305
tp2891
sVendotron
p2892
(I1
I128476
tp2893
sVprogress
p2894
(I2
I115530
tp2895
sVcalendar
p2896
(I2
I129860
tp2897
sVreiter
p2898
(I1
I136975
tp2899
sVkaunda
p2900
(I1
I122963
tp2901
sVconcern
p2902
(I6
I66788
tp2903
sV4.30
p2904
(I1
I133659
tp2905
sVplummet
p2906
(I1
I133926
tp2907
sVtelevis
p2908
(I2
I102776
tp2909
sVinnov
p2910
(I1
I91081
tp2911
sVreview
p2912
(I4
I77098
tp2913
sVmth
p2914
(I8
I9952
tp2915
sVforecast
p2916
(I8
I83982
tp2917
sVestat
p2918
(I3
I96133
tp2919
sVvolatil
p2920
(I1
I130147
tp2921
sVbetween
p2922
(I14
I52449
tp2923
sVherbal
p2924
(I1
I125082
tp2925
sVimport
p2926
(I15
I55588
tp2927
sVbiogen
p2928
(I1
I137491
tp2929
sVacross
p2930
(I2
I107475
tp2931
sVaugust
p2932
(I5
I52592
tp2933
sVparent
p2934
(I1
I106585
tp2935
sV139.46
p2936
(I1
I131312
tp2937
sVjp
p2938
(I1
I127476
tp2939
sVdome
p2940
(I1
I100368
tp2941
sVsupermarket
p2942
(I1
I133423
tp2943
sVtacit
p2944
(I1
I135832
tp2945
sVshortag
p2946
(I6
I83919
tp2947
sVcome
p2948
(I3
I129142
tp2949
sVsumitomo
p2950
(I1
I136796
tp2951
sVbeliv
p2952
(I1
I79617
tp2953
sVfit
p2954
(I1
I139221
tp2955
sVlibya
p2956
(I1
I134870
tp2957
sVaomi
p2958
(I1
I124704
tp2959
sVtrader
p2960
(I5
I84550
tp2961
sV49,000
p2962
(I1
I88496
tp2963
sV175,476
p2964
(I1
I128378
tp2965
sVcontract
p2966
(I4
I85201
tp2967
sVbrierley
p2968
(I1
I133492
tp2969
sV4,835,000
p2970
(I1
I118132
tp2971
sVmani
p2972
(I7
I103958
tp2973
sVrailway
p2974
(I1
I122702
tp2975
sVhvi
p2976
(I1
I139629
tp2977
sVamong
p2978
(I6
I94868
tp2979
sVacceler
p2980
(I4
I104285
tp2981
sVchemlawn'
p2982
(I1
I128300
tp2983
sV50-50
p2984
(I1
I116698
tp2985
sVperiod
p2986
(I17
I86426
tp2987
sVinsist
p2988
(I2
I118368
tp2989
sV50,000
p2990
(I3
I107180
tp2991
sV60
p2992
(I6
I81536
tp2993
sV61
p2994
(I1
I128643
tp2995
sVexploit
p2996
(I1
I117873
tp2997
sV63
p2998
(I1
I114899
tp2999
sVdiffer
p3000
(I1
I113758
tp3001
sValli
p3002
(I1
I139788
tp3003
sV66
p3004
(I1
I10053
tp3005
sV67
p3006
(I2
I92126
tp3007
sV68
p3008
(I1
I114029
tp3009
sV69
p3010
(I2
I120760
tp3011
sV169,275
p3012
(I1
I116236
tp3013
sVtwo-year
p3014
(I1
I128988
tp3015
sVdamag
p3016
(I1
I131798
tp3017
sVultim
p3018
(I1
I61944
tp3019
sVstretch
p3020
(I1
I132848
tp3021
sVwest
p3022
(I5
I94235
tp3023
sV16.5
p3024
(I1
I132407
tp3025
sVmark
p3026
(I2
I119233
tp3027
sVhutton
p3028
(I2
I71071
tp3029
sVdiseas
p3030
(I1
I110079
tp3031
sVralli
p3032
(I2
I121085
tp3033
sV506
p3034
(I1
I115769
tp3035
sVsurplu
p3036
(I4
I125890
tp3037
sV500
p3038
(I2
I84207
tp3039
sV501
p3040
(I1
I135304
tp3041
sV636
p3042
(I1
I113053
tp3043
sV3.9737
p3044
(I1
I128428
tp3045
sVaero
p3046
(I1
I114889
tp3047
sVone-third
p3048
(I1
I136292
tp3049
sVwake
p3050
(I1
I115838
tp3051
sVaviat
p3052
(I1
I115015
tp3053
sVyugoslav
p3054
(I1
I139419
tp3055
sVformer
p3056
(I2
I130944
tp3057
sVthose
p3058
(I5
I112619
tp3059
sVcase
p3060
(I4
I57387
tp3061
sVmerril
p3062
(I1
I128968
tp3063
sVvenezulean
p3064
(I1
I117014
tp3065
sVthese
p3066
(I8
I106831
tp3067
sVslumber
p3068
(I1
I128929
tp3069
sVmount
p3070
(I1
I135413
tp3071
sV3.1
p3072
(I1
I141642
tp3073
sVcash
p3074
(I17
I67305
tp3075
sVimperi
p3076
(I2
I101824
tp3077
sVn't
p3078
(I1
I139211
tp3079
sVshortfal
p3080
(I2
I27538
tp3081
sVtrico
p3082
(I2
I112581
tp3083
sV170,800
p3084
(I1
I133336
tp3085
sVsubsist
p3086
(I1
I131924
tp3087
sVsorghum
p3088
(I2
I88506
tp3089
sV1,768,000
p3090
(I1
I123614
tp3091
sVrefineri
p3092
(I1
I116787
tp3093
sV588.5
p3094
(I1
I128733
tp3095
sVadvantag
p3096
(I3
I91543
tp3097
sV17/64
p3098
(I1
I112965
tp3099
sVworri
p3100
(I1
I91110
tp3101
sVelectrolyt
p3102
(I1
I139389
tp3103
sVmcdermott
p3104
(I1
I122244
tp3105
sVwarehous
p3106
(I1
I141452
tp3107
sV2,500,000
p3108
(I1
I141941
tp3109
sV13.6
p3110
(I1
I42915
tp3111
sV13.4
p3112
(I1
I126215
tp3113
sV13.1
p3114
(I1
I115202
tp3115
sVtamborapa
p3116
(I1
I137441
tp3117
sVdevelop
p3118
(I10
I90136
tp3119
sV11.9
p3120
(I1
I133160
tp3121
sVauthor
p3122
(I5
I57432
tp3123
sV11.4
p3124
(I2
I115084
tp3125
sVpay
p3126
(I15
I73268
tp3127
sVmedic
p3128
(I2
I134468
tp3129
sV11.0
p3130
(I1
I44632
tp3131
sVeconom
p3132
(I7
I117136
tp3133
sVsame
p3134
(I8
I53692
tp3135
sV11.3
p3136
(I1
I133778
tp3137
sV50,000-tonn
p3138
(I1
I140314
tp3139
sV17.3
p3140
(I1
I104603
tp3141
sV17.1
p3142
(I1
I138328
tp3143
sV287,600
p3144
(I1
I133384
tp3145
sV17.9
p3146
(I1
I127266
tp3147
sVweek
p3148
(I16
I62428
tp3149
sVjeffrey
p3150
(I1
I69564
tp3151
sVoil
p3152
(I18
I43844
tp3153
sVpari
p3154
(I1
I142031
tp3155
sVecuadorean
p3156
(I2
I120294
tp3157
sVrainbow
p3158
(I2
I128095
tp3159
sV10-25
p3160
(I1
I139062
tp3161
sVassist
p3162
(I3
I102234
tp3163
sVdirector
p3164
(I3
I130963
tp3165
sVcapabl
p3166
(I1
I113228
tp3167
sVfruit
p3168
(I1
I124774
tp3169
sVultramar
p3170
(I1
I128124
tp3171
sVimprov
p3172
(I8
I58737
tp3173
sVextern
p3174
(I1
I61805
tp3175
sVpostpon
p3176
(I2
I31329
tp3177
sVsumita
p3178
(I2
I134597
tp3179
sVdrain
p3180
(I2
I119436
tp3181
sVmoder
p3182
(I2
I130118
tp3183
sVpennsylvania
p3184
(I3
I100637
tp3185
sVpachapidiana
p3186
(I1
I137451
tp3187
sVvacant
p3188
(I1
I69728
tp3189
sV158,000
p3190
(I1
I122016
tp3191
sVwithout
p3192
(I5
I49137
tp3193
sVrelief
p3194
(I1
I126758
tp3195
sVbodi
p3196
(I1
I136032
tp3197
sVpa.
p3198
(I3
I101407
tp3199
sV135.6
p3200
(I1
I127386
tp3201
sV217
p3202
(I1
I102497
tp3203
sVexecut
p3204
(I11
I79774
tp3205
sVwale
p3206
(I2
I140136
tp3207
sVmoney
p3208
(I12
I83794
tp3209
sVrest
p3210
(I2
I74260
tp3211
sVweekli
p3212
(I1
I129048
tp3213
sVkill
p3214
(I1
I120371
tp3215
sVkilo
p3216
(I3
I107877
tp3217
sVflavor
p3218
(I1
I108631
tp3219
sVconcentr
p3220
(I3
I133229
tp3221
sVversu
p3222
(I4
I92398
tp3223
sVdeath
p3224
(I1
I107074
tp3225
sVeurop
p3226
(I1
I117883
tp3227
sVny
p3228
(I1
I133808
tp3229
sVeckenfeld
p3230
(I1
I68995
tp3231
sVrose
p3232
(I11
I93675
tp3233
sV1-3/4
p3234
(I1
I128534
tp3235
sVlittl
p3236
(I6
I70188
tp3237
sV1,800,000
p3238
(I1
I99815
tp3239
sV789
p3240
(I1
I139649
tp3241
sVpile
p3242
(I1
I123438
tp3243
sVtreatment
p3244
(I1
I137401
tp3245
sVexercis
p3246
(I1
I83117
tp3247
sV4,127,000
p3248
(I1
I118122
tp3249
sVdisrupt
p3250
(I1
I123408
tp3251
sVpill
p3252
(I1
I137213
tp3253
sV80,000
p3254
(I1
I130642
tp3255
sVfurnac
p3256
(I1
I132971
tp3257
sVreal
p3258
(I2
I96114
tp3259
sV3.69
p3260
(I1
I138398
tp3261
sVaround
p3262
(I12
I79492
tp3263
sV21p
p3264
(I1
I107513
tp3265
sVzayr
p3266
(I1
I95956
tp3267
sV3.66
p3268
(I1
I133649
tp3269
sVoct
p3270
(I1
I138993
tp3271
sV56.6
p3272
(I1
I138178
tp3273
sV0.58
p3274
(I1
I133936
tp3275
sV1.02
p3276
(I1
I115054
tp3277
sVtraffic
p3278
(I1
I139320
tp3279
sVdetract
p3280
(I1
I108591
tp3281
sVworld
p3282
(I7
I84830
tp3283
sVall-parti
p3284
(I1
I113807
tp3285
sVvictori
p3286
(I1
I131720
tp3287
sV131.2
p3288
(I1
I92076
tp3289
sVyear-on
p3290
(I1
I119687
tp3291
sVqtli
p3292
(I8
I80760
tp3293
sVduth
p3294
(I1
I140743
tp3295
sV49.70
p3296
(I1
I107925
tp3297
sVvoluntarili
p3298
(I1
I138588
tp3299
sV116.8
p3300
(I1
I133758
tp3301
sV1,306,875
p3302
(I1
I127945
tp3303
sVbenefit
p3304
(I7
I99845
tp3305
sV133.4
p3306
(I1
I127376
tp3307
sVeither
p3308
(I1
I142370
tp3309
sVbgenf
p3310
(I1
I137501
tp3311
sVoutput
p3312
(I9
I93156
tp3313
sVdownward
p3314
(I3
I117584
tp3315
sVrealiti
p3316
(I1
I136112
tp3317
sVmanag
p3318
(I15
I69187
tp3319
sV360.0
p3320
(I1
I96330
tp3321
sVfulfil
p3322
(I1
I130308
tp3323
sVdeduct
p3324
(I1
I104836
tp3325
sVsharehold
p3326
(I14
I74727
tp3327
sVmatur
p3328
(I3
I129571
tp3329
sV8,807,000
p3330
(I1
I131492
tp3331
sVsatisfactori
p3332
(I1
I115441
tp3333
sVweek'
p3334
(I1
I129532
tp3335
sVjewelleri
p3336
(I1
I138914
tp3337
sV8,626,000
p3338
(I1
I100869
tp3339
sVguillermo
p3340
(I1
I95787
tp3341
sV985,000
p3342
(I1
I115333
tp3343
sVfreez
p3344
(I1
I120342
tp3345
sVslice
p3346
(I1
I128871
tp3347
sVconfirm
p3348
(I2
I70261
tp3349
sVnoon
p3350
(I1
I46045
tp3351
sVkml
p3352
(I1
I99726
tp3353
sVdefinit
p3354
(I3
I123674
tp3355
sVlegal
p3356
(I2
I130593
tp3357
sVflow
p3358
(I5
I112836
tp3359
sVmoor
p3360
(I1
I134832
tp3361
sVdeficit
p3362
(I5
I130225
tp3363
sVnotabl
p3364
(I1
I140244
tp3365
sVrefer
p3366
(I2
I123030
tp3367
sV14,289
p3368
(I1
I138278
tp3369
sVarabia
p3370
(I1
I141802
tp3371
sVwestinghous
p3372
(I1
I102980
tp3373
sVwheat
p3374
(I4
I114413
tp3375
sVcompris
p3376
(I4
I120013
tp3377
sV386.0
p3378
(I1
I115153
tp3379
sVbarrel-per-day
p3380
(I1
I116738
tp3381
sVsixth
p3382
(I1
I137611
tp3383
sVscarc
p3384
(I1
I125024
tp3385
sVration
p3386
(I2
I124042
tp3387
sVlocal
p3388
(I1
I131392
tp3389
sVbroker
p3390
(I1
I105625
tp3391
sVslaughter
p3392
(I1
I139549
tp3393
sVbroken
p3394
(I1
I125334
tp3395
sVgraaf
p3396
(I1
I97614
tp3397
sVfulli
p3398
(I2
I66932
tp3399
sVthailand
p3400
(I1
I118793
tp3401
sVwclb
p3402
(I1
I141472
tp3403
sV37-1/2
p3404
(I1
I106076
tp3405
sVstandstil
p3406
(I1
I105552
tp3407
sVsrb
p3408
(I1
I113353
tp3409
sVon
p3410
(I66
I19904
tp3411
sVcentral
p3412
(I6
I119252
tp3413
sVstant
p3414
(I1
I77039
tp3415
sVsrd
p3416
(I1
I134772
tp3417
sVof
p3418
(I144
I28088
tp3419
sVsri
p3420
(I1
I110202
tp3421
sVgreater
p3422
(I3
I134645
tp3423
sVacr
p3424
(I2
I123959
tp3425
sVdegre
p3426
(I1
I112945
tp3427
sVintens
p3428
(I1
I132248
tp3429
sVstand
p3430
(I4
I70124
tp3431
sVact
p3432
(I1
I124724
tp3433
sVgreet
p3434
(I2
I141882
tp3435
sVindustri
p3436
(I20
I51367
tp3437
sVemployers'
p3438
(I1
I113989
tp3439
sVor
p3440
(I30
I88034
tp3441
sVroad
p3442
(I1
I131089
tp3443
sV33.5
p3444
(I1
I92766
tp3445
sVoutlook
p3446
(I2
I128832
tp3447
sVeffici
p3448
(I1
I139948
tp3449
sVlower-qu
p3450
(I1
I139978
tp3451
sV8.59
p3452
(I1
I124909
tp3453
sV497,452
p3454
(I1
I127935
tp3455
sVcompos
p3456
(I1
I134782
tp3457
sVtriniti
p3458
(I1
I117247
tp3459
sV148,000
p3460
(I1
I138736
tp3461
sVlenz
p3462
(I1
I121506
tp3463
sVneil
p3464
(I1
I134152
tp3465
sV7,492,000
p3466
(I1
I115353
tp3467
sVyour
p3468
(I2
I109111
tp3469
sVbreath
p3470
(I1
I128958
tp3471
sV7.3
p3472
(I1
I139499
tp3473
sVarea
p3474
(I8
I123858
tp3475
sVdutch/shel
p3476
(I1
I113363
tp3477
sVthere
p3478
(I10
I62664
tp3479
sVphiladelphia
p3480
(I1
I142200
tp3481
sV10,355,728
p3482
(I1
I127466
tp3483
sVstart
p3484
(I10
I98544
tp3485
sVlow
p3486
(I2
I120313
tp3487
sVbrazilian
p3488
(I2
I120808
tp3489
sVsubmiss
p3490
(I1
I139918
tp3491
sVvalley
p3492
(I1
I124368
tp3493
sV3,034,010
p3494
(I1
I128388
tp3495
sVstrict
p3496
(I1
I139888
tp3497
sVg-5
p3498
(I1
I142001
tp3499
sV4.42
p3500
(I1
I133639
tp3501
sVlasmo
p3502
(I2
I112767
tp3503
sVbottl
p3504
(I1
I142410
tp3505
sV750
p3506
(I1
I130279
tp3507
sVartg
p3508
(I1
I142240
tp3509
sVauspici
p3510
(I1
I129198
tp3511
sV101.9
p3512
(I1
I138208
tp3513
sVcabinet
p3514
(I1
I120504
tp3515
sV103.4
p3516
(I1
I136746
tp3517
sVagl
p3518
(I1
I141532
tp3519
sV40,000
p3520
(I1
I114311
tp3521
sVe
(I1
I114019
tp3522
sVcourt-ord
p3523
(I1
I131836
tp3524
sVrealli
p3525
(I1
I138845
tp3526
sVwith
p3527
(I56
I18348
tp3528
sVlonger
p3529
(I3
I55301
tp3530
sVrush
p3531
(I1
I108177
tp3532
sV4,700,000
p3533
(I1
I96504
tp3534
sVpossibl
p3535
(I7
I82281
tp3536
sVdefault
p3537
(I1
I126061
tp3538
sVelectromagnet
p3539
(I1
I117931
tp3540
sVnearest
p3541
(I1
I140096
tp3542
sVmonopoli
p3543
(I2
I130534
tp3544
sV463,000
p3545
(I1
I123290
tp3546
sVconnect
p3547
(I1
I142250
tp3548
sVaa
p3549
(I1
I101098
tp3550
sVad
p3551
(I24
I37024
tp3552
sVcreat
p3553
(I6
I69907
tp3554
sVqtrli
p3555
(I3
I126626
tp3556
sVai
p3557
(I1
I130827
tp3558
sVcertain
p3559
(I8
I41015
tp3560
sVal
p3561
(I1
I112796
tp3562
sVdeep
p3563
(I1
I113103
tp3564
sVan
p3565
(I56
I24273
tp3566
sVgovernment'
p3567
(I1
I121065
tp3568
sVbritain
p3569
(I6
I94382
tp3570
sVdecreas
p3571
(I2
I139033
tp3572
sVat
p3573
(I59
I45465
tp3574
sVfile
p3575
(I5
I103275
tp3576
sVcultur
p3577
(I1
I131934
tp3578
sVgactz
p3579
(I1
I139529
tp3580
sVproport
p3581
(I2
I95315
tp3582
sVportland
p3583
(I1
I140204
tp3584
sVc.
p3585
(I1
I138108
tp3586
sVagain
p3587
(I2
I132690
tp3588
sVportug
p3589
(I2
I93811
tp3590
sV4.1
p3591
(I1
I140733
tp3592
sV4.0
p3593
(I1
I119101
tp3594
sVwant
p3595
(I2
I135638
tp3596
sV4.2
p3597
(I3
I131856
tp3598
sV79
p3599
(I1
I123280
tp3600
sVextract
p3601
(I1
I137421
tp3602
sV4.9
p3603
(I1
I128182
tp3604
sV4.8
p3605
(I1
I123848
tp3606
sVreduct
p3607
(I3
I95899
tp3608
sVrubber
p3609
(I3
I110041
tp3610
sVfield
p3611
(I4
I126703
tp3612
sVvalid
p3613
(I1
I131622
tp3614
sVcompet
p3615
(I3
I102738
tp3616
sVthorugh
p3617
(I1
I137849
tp3618
sVyou
p3619
(I2
I137125
tp3620
sVchung-jung
p3621
(I1
I138468
tp3622
sVthousand
p3623
(I1
I139559
tp3624
sVpoor
p3625
(I2
I140404
tp3626
sVtrip
p3627
(I1
I135882
tp3628
sVcot
p3629
(I1
I134182
tp3630
sV4,000
p3631
(I1
I94544
tp3632
sVcongress
p3633
(I2
I133111
tp3634
sVnote:1986
p3635
(I3
I114958
tp3636
sVsartaj
p3637
(I1
I140992
tp3638
sVdrift
p3639
(I1
I129208
tp3640
sV4,572,000
p3641
(I1
I126013
tp3642
sViomg
p3643
(I1
I125945
tp3644
sVpush
p3645
(I1
I110330
tp3646
sV3,324,000
p3647
(I1
I123654
tp3648
sVkingsley
p3649
(I1
I140433
tp3650
sVqueensland
p3651
(I2
I140175
tp3652
sVkittiwak
p3653
(I1
I127246
tp3654
sVfiscal
p3655
(I7
I96161
tp3656
sV4,255,000
p3657
(I1
I134222
tp3658
sV409.5
p3659
(I1
I137949
tp3660
sVcoren
p3661
(I1
I110172
tp3662
sVsuprem
p3663
(I2
I131661
tp3664
sVinvest
p3665
(I16
I81849
tp3666
sVcpc
p3667
(I1
I111677
tp3668
sVzimbabw
p3669
(I2
I122791
tp3670
sVrepay
p3671
(I1
I138078
tp3672
sVcordero
p3673
(I1
I120088
tp3674
sVpotenti
p3675
(I4
I125440
tp3676
sVdyer
p3677
(I1
I102145
tp3678
sVmanaspa
p3679
(I1
I118773
tp3680
sV3,202,355
p3681
(I1
I134547
tp3682
sVall
p3683
(I23
I56771
tp3684
sVconsider
p3685
(I3
I60383
tp3686
sVpti
p3687
(I1
I82363
tp3688
sVequiticorp
p3689
(I1
I128114
tp3690
sVlack
p3691
(I2
I123448
tp3692
sVdollar
p3693
(I6
I129258
tp3694
sVmonth
p3695
(I26
I16903
tp3696
sV96,043
p3697
(I1
I139669
tp3698
sVunrest
p3699
(I2
I121027
tp3700
sVatlant
p3701
(I1
I123722
tp3702
sVdisc
p3703
(I1
I130397
tp3704
sVdebartolo
p3705
(I1
I139758
tp3706
sVzinc
p3707
(I1
I105783
tp3708
sVfollow
p3709
(I15
I46933
tp3710
sVmerchandis
p3711
(I1
I136508
tp3712
sVsettlement
p3713
(I2
I96671
tp3714
sVmne
p3715
(I1
I100489
tp3716
sVscr
p3717
(I1
I127336
tp3718
sVgriffin
p3719
(I1
I131402
tp3720
sVwmx
p3721
(I1
I128221
tp3722
sVyasuhiro
p3723
(I1
I135374
tp3724
sVtx
p3725
(I1
I132121
tp3726
sVtv
p3727
(I1
I102427
tp3728
sVflexibl
p3729
(I1
I137759
tp3730
sVthursday
p3731
(I5
I64733
tp3732
sVspirit
p3733
(I1
I140613
tp3734
sVto
p3735
(I126
I10460
tp3736
sVtl
p3737
(I1
I142360
tp3738
sVprogram
p3739
(I7
I104168
tp3740
sVpresent
p3741
(I9
I11675
tp3742
sV1,019,000
p3743
(I1
I115323
tp3744
sValberta
p3745
(I1
I117843
tp3746
sVsustain
p3747
(I1
I113238
tp3748
sVneglig
p3749
(I1
I107309
tp3750
sVrob
p3751
(I1
I135745
tp3752
sVintroduc
p3753
(I1
I141202
tp3754
sVta
p3755
(I2
I82073
tp3756
sVglobal
p3757
(I1
I70783
tp3758
sVshipment
p3759
(I6
I84940
tp3760
sVfar
p3761
(I1
I108157
tp3762
sV1,500
p3763
(I1
I131552
tp3764
sVfat
p3765
(I1
I87961
tp3766
sVutil
p3767
(I3
I132585
tp3768
sVcandid
p3769
(I1
I125255
tp3770
sVfan
p3771
(I1
I125072
tp3772
sVfam
p3773
(I1
I44466
tp3774
sVveri
p3775
(I6
I79627
tp3776
sVnsw
p3777
(I1
I140155
tp3778
sVunderperform
p3779
(I1
I45364
tp3780
sVdampen
p3781
(I1
I138756
tp3782
sVharri
p3783
(I1
I130020
tp3784
sV--
p3785
(I4
I118481
tp3786
sVthree-for-on
p3787
(I2
I118310
tp3788
sVamend
p3789
(I1
I128270
tp3790
sVadjust
p3791
(I12
I41258
tp3792
sVrepurchas
p3793
(I1
I119609
tp3794
sVsaudi
p3795
(I2
I118889
tp3796
sVlessen
p3797
(I1
I140483
tp3798
sVsmall
p3799
(I3
I127009
tp3800
sVdamper
p3801
(I1
I138766
tp3802
sV371,064
p3803
(I1
I142320
tp3804
sV3.18
p3805
(I1
I127895
tp3806
sVenterpris
p3807
(I4
I106520
tp3808
sVtel
p3809
(I1
I99945
tp3810
sVedt
p3811
(I1
I128290
tp3812
sV3.11
p3813
(I1
I141322
tp3814
sV90.3
p3815
(I1
I115113
tp3816
sV90.5
p3817
(I1
I132466
tp3818
sV190
p3819
(I1
I116807
tp3820
sV3.17
p3821
(I1
I94225
tp3822
sVpast
p3823
(I5
I77289
tp3824
sVzero
p3825
(I1
I51966
tp3826
sV10.45
p3827
(I1
I121628
tp3828
sVdesign
p3829
(I7
I107319
tp3830
sVquebec
p3831
(I2
I114039
tp3832
sVpass
p3833
(I3
I88420
tp3834
sV25-year
p3835
(I1
I116984
tp3836
sVfurther
p3837
(I8
I110978
tp3838
sVsbci
p3839
(I1
I108756
tp3840
sVnon-exect
p3841
(I1
I134792
tp3842
sV96.0
p3843
(I1
I115103
tp3844
sVserv
p3845
(I1
I137581
tp3846
sVdeleg
p3847
(I3
I20627
tp3848
sVstood
p3849
(I3
I107648
tp3850
sVbarrier
p3851
(I1
I125324
tp3852
sVsum
p3853
(I1
I139330
tp3854
sVmini-refund
p3855
(I1
I128851
tp3856
sVabl
p3857
(I4
I115568
tp3858
sVbrief
p3859
(I1
I125344
tp3860
sVkaltenbach
p3861
(I1
I121707
tp3862
sVdisench
p3863
(I1
I133956
tp3864
sVundevelop
p3865
(I1
I127226
tp3866
sVconsecut
p3867
(I2
I126664
tp3868
sV191.5
p3869
(I1
I115995
tp3870
sVmicrochip
p3871
(I1
I135628
tp3872
sVpublic
p3873
(I9
I63728
tp3874
sVmovement
p3875
(I1
I123418
tp3876
sVpre-audit
p3877
(I1
I139369
tp3878
sVfull
p3879
(I9
I48122
tp3880
sVthemselv
p3881
(I1
I113768
tp3882
sVmull
p3883
(I1
I73039
tp3884
sVchristi
p3885
(I1
I116758
tp3886
sVpacif
p3887
(I3
I88850
tp3888
sV5.4
p3889
(I1
I122302
tp3890
sV12.41
p3891
(I1
I94074
tp3892
sVexcess
p3893
(I2
I125617
tp3894
sVhigher-yield
p3895
(I1
I129762
tp3896
sVmethod
p3897
(I2
I125759
tp3898
sVstrong
p3899
(I2
I118639
tp3900
sVmodifi
p3901
(I1
I126081
tp3902
sVvalu
p3903
(I12
I67032
tp3904
sV2,972,000
p3905
(I1
I133689
tp3906
sVuphold
p3907
(I1
I135224
tp3908
sVahead
p3909
(I2
I118851
tp3910
sVtwelve-day
p3911
(I1
I140763
tp3912
sVcollater
p3913
(I1
I96774
tp3914
sVprior
p3915
(I15
I80957
tp3916
sVamount
p3917
(I8
I75376
tp3918
sVnavistar
p3919
(I1
I133976
tp3920
sVsocial
p3921
(I2
I97566
tp3922
sVaction
p3923
(I9
I60062
tp3924
sVnarrow
p3925
(I1
I129228
tp3926
sVmedicin
p3927
(I1
I125092
tp3928
sVvia
p3929
(I2
I88714
tp3930
sVdepart
p3931
(I8
I87350
tp3932
sVdeclin
p3933
(I8
I89967
tp3934
sVpanamanian
p3935
(I1
I122433
tp3936
sVafrica
p3937
(I2
I122529
tp3938
sVask
p3939
(I6
I110756
tp3940
sVbest/dsl
p3941
(I1
I140593
tp3942
sVvit
p3943
(I1
I138248
tp3944
sVrko
p3945
(I1
I102447
tp3946
sVselect
p3947
(I1
I87566
tp3948
sVdonaldson
p3949
(I1
I100499
tp3950
sVproceed
p3951
(I6
I98424
tp3952
sVenliven
p3953
(I1
I129840
tp3954
sVliber
p3955
(I1
I135922
tp3956
sVinjuri
p3957
(I1
I131974
tp3958
sVpetroleum
p3959
(I9
I41867
tp3960
sVtwo
p3961
(I26
I61119
tp3962
sVresciss
p3963
(I1
I96661
tp3964
sVanger
p3965
(I1
I135364
tp3966
sVmorn
p3967
(I3
I47606
tp3968
sVoffshor
p3969
(I2
I126913
tp3970
sV6
(I5
I88897
tp3971
sVtaken
p3972
(I3
I47506
tp3973
sVincid
p3974
(I1
I142111
tp3975
sVmore
p3976
(I18
I54238
tp3977
sVflat
p3978
(I2
I90373
tp3979
sVisrael
p3980
(I2
I92960
tp3981
sVpagurian
p3982
(I1
I126091
tp3983
sVdesir
p3984
(I1
I133619
tp3985
sVhockin
p3986
(I1
I117335
tp3987
sVflag
p3988
(I1
I131542
tp3989
sV1,930,400
p3990
(I1
I131452
tp3991
sVexpedit
p3992
(I1
I134930
tp3993
sVaris
p3994
(I2
I96755
tp3995
sVknown
p3996
(I3
I106333
tp3997
sVguin.l
p3998
(I1
I140503
tp3999
sVcompani
p4000
(I61
I39284
tp4001
sVwor-tv
p4002
(I1
I103148
tp4003
sVtown
p4004
(I1
I137361
tp4005
sV258.7
p4006
(I1
I134261
tp4007
sVhour
p4008
(I1
I47804
tp4009
sVhous
p4010
(I5
I114058
tp4011
sVoutlin
p4012
(I1
I136062
tp4013
sVtwinned-port
p4014
(I1
I124831
tp4015
sV401,100
p4016
(I1
I131462
tp4017
sVremain
p4018
(I10
I64616
tp4019
sVportugues
p4020
(I1
I130407
tp4021
sVnine
p4022
(I8
I9871
tp4023
sVden
p4024
(I1
I124754
tp4025
sVabandon
p4026
(I1
I96613
tp4027
sVdec
p4028
(I1
I123732
tp4029
sVoilfield
p4030
(I1
I112265
tp4031
sVbarclay
p4032
(I1
I125411
tp4033
sV5,847,000
p4034
(I1
I96320
tp4035
sVchalleng
p4036
(I3
I102870
tp4037
sVregistr
p4038
(I1
I134448
tp4039
sVshare
p4040
(I39
I73670
tp4041
sVreevalu
p4042
(I1
I130338
tp4043
sVaccept
p4044
(I6
I114331
tp4045
sVboycott
p4046
(I1
I135902
tp4047
sVmargin
p4048
(I1
I141162
tp4049
sVminimum
p4050
(I3
I79918
tp4051
sVbeall
p4052
(I1
I89345
tp4053
sVexplor
p4054
(I5
I116352
tp4055
sVpartner
p4056
(I4
I122066
tp4057
sVsharp
p4058
(I3
I127604
tp4059
sVgreenwich
p4060
(I1
I121466
tp4061
sVdress
p4062
(I1
I92473
tp4063
sVf.
p4064
(I1
I137829
tp4065
sVhuge
p4066
(I2
I123389
tp4067
sVnine-month
p4068
(I1
I117696
tp4069
sVcourt
p4070
(I7
I107218
tp4071
sV5.6
p4072
(I1
I138973
tp4073
sVsecur
p4074
(I12
I69015
tp4075
sVtaiwanes
p4076
(I2
I125053
tp4077
sVanoth
p4078
(I10
I71271
tp4079
sVhugh
p4080
(I2
I111812
tp4081
sVshearson
p4082
(I2
I57641
tp4083
sVdivis
p4084
(I6
I69980
tp4085
sVacquisition'
p4086
(I1
I137045
tp4087
sVreject
p4088
(I2
I71090
tp4089
sVplant
p4090
(I5
I100583
tp4091
sV9,270,000
p4092
(I1
I115918
tp4093
sVresourc
p4094
(I5
I92227
tp4095
sVawb
p4096
(I1
I139818
tp4097
sVbko
p4098
(I2
I111980
tp4099
sV616
p4100
(I1
I107676
tp4101
sVnon-recur
p4102
(I1
I45111
tp4103
sVcatalog
p4104
(I1
I142290
tp4105
sVfc
p4106
(I1
I141362
tp4107
sV4,142,095
p4108
(I1
I113635
tp4109
sVfloor
p4110
(I1
I118387
tp4111
sVsalaam
p4112
(I1
I122781
tp4113
sVassoci
p4114
(I7
I97038
tp4115
sVqchr
p4116
(I1
I132347
tp4117
sVa
(I108
I14605
tp4118
sVcircumst
p4119
(I1
I118407
tp4120
sVshort
p4121
(I2
I122215
tp4122
sV161,019
p4123
(I1
I116166
tp4124
sVovernight
p4125
(I3
I71463
tp4126
sVcaus
p4127
(I5
I55740
tp4128
sV1900gmt
p4129
(I1
I48230
tp4130
sVshore
p4131
(I1
I131894
tp4132
sVimpetu
p4133
(I1
I129663
tp4134
sVpanama
p4135
(I1
I122350
tp4136
sV373.0
p4137
(I1
I115163
tp4138
sVegg
p4139
(I1
I136410
tp4140
sVhelp
p4141
(I9
I59667
tp4142
sVsoon
p4143
(I4
I112333
tp4144
sVsetback
p4145
(I1
I131788
tp4146
sVtrade
p4147
(I16
I103543
tp4148
sVheld
p4149
(I6
I96893
tp4150
sVpaper
p4151
(I2
I109481
tp4152
sVthrough
p4153
(I12
I100145
tp4154
sV11.2
p4155
(I2
I133709
tp4156
sV1.98
p4157
(I1
I42875
tp4158
sVquevedo
p4159
(I1
I120419
tp4160
sVsuffer
p4161
(I1
I90068
tp4162
sV1.91
p4163
(I2
I44642
tp4164
sV24
p4165
(I10
I47697
tp4166
sV25
p4167
(I12
I52684
tp4168
sV26
p4169
(I7
I86238
tp4170
sV27
p4171
(I4
I117706
tp4172
sV20
p4173
(I12
I63603
tp4174
sV21
p4175
(I4
I92691
tp4176
sV22
p4177
(I4
I83305
tp4178
sV23
p4179
(I2
I86720
tp4180
sV9,909,000
p4181
(I1
I128653
tp4182
sVmessel
p4183
(I1
I102008
tp4184
sVborder
p4185
(I2
I137312
tp4186
sV28
p4187
(I11
I86310
tp4188
sV29
p4189
(I4
I75023
tp4190
sVpct
p4191
(I65
I52809
tp4192
sVlate
p4193
(I9
I48610
tp4194
sVpend
p4195
(I3
I96633
tp4196
sVreschedul
p4197
(I1
I88951
tp4198
sVfamou
p4199
(I1
I44446
tp4200
sVpcc
p4201
(I1
I71388
tp4202
sVsenat
p4203
(I1
I134910
tp4204
sValter
p4205
(I1
I134703
tp4206
sV7.07
p4207
(I1
I140912
tp4208
sVgood
p4209
(I12
I87441
tp4210
sVreturn
p4211
(I1
I127142
tp4212
sVfood
p4213
(I7
I87596
tp4214
sVgemcraft
p4215
(I1
I96280
tp4216
sVbought
p4217
(I9
I127712
tp4218
sVframework
p4219
(I1
I119315
tp4220
sVcompound
p4221
(I3
I120999
tp4222
sV3,799,000
p4223
(I1
I123644
tp4224
sVbancorp
p4225
(I1
I124237
tp4226
sVchicago
p4227
(I1
I141492
tp4228
sVwoolworth
p4229
(I1
I131232
tp4230
sVwar
p4231
(I1
I141252
tp4232
sV450,000
p4233
(I1
I118725
tp4234
sVradiat
p4235
(I1
I77078
tp4236
sVachiev
p4237
(I1
I137739
tp4238
sVundertak
p4239
(I1
I18973
tp4240
sVfound
p4241
(I2
I107290
tp4242
sVintervent
p4243
(I5
I93264
tp4244
sVdifficult
p4245
(I1
I111404
tp4246
sV5,900,000
p4247
(I1
I92046
tp4248
sVharm
p4249
(I2
I50980
tp4250
sVdig
p4251
(I1
I131099
tp4252
sVengland
p4253
(I7
I84135
tp4254
sVsteelmak
p4255
(I1
I132858
tp4256
sVharg
p4257
(I1
I115858
tp4258
sVfish
p4259
(I2
I132318
tp4260
sVhard
p4261
(I1
I114624
tp4262
sVidea
p4263
(I1
I48112
tp4264
sVprocedur
p4265
(I2
I56654
tp4266
sVdemocrat
p4267
(I1
I135932
tp4268
sVheavi
p4269
(I5
I55794
tp4270
sVdallas-bas
p4271
(I1
I116406
tp4272
sVfinish
p4273
(I1
I102155
tp4274
sVexpect
p4275
(I33
I85685
tp4276
sVenergi
p4277
(I4
I112693
tp4278
sVbeyond
p4279
(I1
I64606
tp4280
sVrandolph
p4281
(I1
I121486
tp4282
sVorient
p4283
(I1
I106605
tp4284
sV170,000
p4285
(I1
I137839
tp4286
sVagre
p4287
(I13
I72019
tp4288
sVsafeti
p4289
(I2
I100451
tp4290
sVadmiss
p4291
(I1
I135842
tp4292
sV36.22
p4293
(I1
I114674
tp4294
sVitem
p4295
(I2
I116295
tp4296
sVoil-ga
p4297
(I1
I141782
tp4298
sVpublish
p4299
(I4
I95094
tp4300
sVresearch
p4301
(I3
I90744
tp4302
sV1.75
p4303
(I1
I139539
tp4304
sVhealth
p4305
(I4
I87668
tp4306
sV1.72
p4307
(I1
I94343
tp4308
sV1.78
p4309
(I1
I95996
tp4310
sV1.79
p4311
(I1
I132575
tp4312
sVcours
p4313
(I2
I123106
tp4314
sVtextil
p4315
(I2
I125102
tp4316
sVextraordinari
p4317
(I4
I43799
tp4318
sVqualifi
p4319
(I2
I113123
tp4320
sV3.08
p4321
(I1
I10043
tp4322
sVrisen
p4323
(I3
I51938
tp4324
sVadvanc
p4325
(I3
I127066
tp4326
sVfriday
p4327
(I8
I64787
tp4328
sV3.07
p4329
(I1
I10033
tp4330
sV3.06
p4331
(I2
I105044
tp4332
sVlobbi
p4333
(I1
I117345
tp4334
sVpnbt
p4335
(I1
I141422
tp4336
sVreason
p4337
(I1
I130662
tp4338
sVbase
p4339
(I12
I85013
tp4340
sVbeliev
p4341
(I4
I79428
tp4342
sVput
p4343
(I6
I99047
tp4344
sVsbn
p4345
(I1
I128773
tp4346
sVheadquart
p4347
(I2
I142161
tp4348
sVbasi
p4349
(I7
I20555
tp4350
sVe.f
p4351
(I1
I71061
tp4352
sVlaunch
p4353
(I4
I108067
tp4354
sV2p
p4355
(I1
I137779
tp4356
sVomit
p4357
(I1
I132709
tp4358
sVsuccess
p4359
(I2
I135423
tp4360
sVamerican
p4361
(I4
I57486
tp4362
sV385,081
p4363
(I1
I113615
tp4364
sVbusinessmen
p4365
(I1
I133170
tp4366
sVthreat
p4367
(I1
I91324
tp4368
sVenough
p4369
(I5
I129609
tp4370
sV4,829,000
p4371
(I1
I96494
tp4372
sVundergo
p4373
(I1
I136132
tp4374
sVbushel
p4375
(I1
I134990
tp4376
sVfeed
p4377
(I1
I133219
tp4378
sVcopper
p4379
(I2
I122510
tp4380
sVmajor
p4381
(I11
I70381
tp4382
sVusda
p4383
(I2
I87024
tp4384
sV9-13/16
p4385
(I1
I131382
tp4386
sVfeel
p4387
(I1
I125304
tp4388
sVexchang
p4389
(I14
I44283
tp4390
sVunprofit
p4391
(I1
I141482
tp4392
sVnumber
p4393
(I5
I100765
tp4394
sV360,000
p4395
(I1
I118715
tp4396
sVfeet
p4397
(I2
I113034
tp4398
sVelder
p4399
(I1
I141652
tp4400
sV13,000
p4401
(I2
I124071
tp4402
sVsmaller
p4403
(I3
I126768
tp4404
sVdone
p4405
(I1
I130632
tp4406
sVconstruct
p4407
(I4
I122160
tp4408
sVcolombia
p4409
(I2
I48572
tp4410
sV1987/88
p4411
(I4
I126255
tp4412
sV2,281,000
p4413
(I1
I135146
tp4414
sVstabl
p4415
(I4
I117062
tp4416
sV706,000
p4417
(I1
I118246
tp4418
sVmercuri
p4419
(I1
I49597
tp4420
sVguess
p4421
(I1
I107465
tp4422
sVfcsi
p4423
(I1
I141382
tp4424
sVleast
p4425
(I10
I76426
tp4426
sVpora
p4427
(I1
I110182
tp4428
sV180
p4429
(I2
I95239
tp4430
sVstation
p4431
(I1
I102437
tp4432
sVtighter
p4433
(I1
I139828
tp4434
sVstatement
p4435
(I15
I59910
tp4436
sVmid-1993
p4437
(I1
I141122
tp4438
sVchamplin
p4439
(I1
I116817
tp4440
sVstore
p4441
(I5
I109771
tp4442
sVsummit
p4443
(I1
I141991
tp4444
sVadher
p4445
(I1
I139898
tp4446
sVoption
p4447
(I5
I57660
tp4448
sVrelationship
p4449
(I1
I134802
tp4450
sVbehind
p4451
(I2
I125568
tp4452
sVbank/canada
p4453
(I1
I139689
tp4454
sVhotel
p4455
(I1
I104680
tp4456
sVduti
p4457
(I2
I134083
tp4458
sVsentiment
p4459
(I1
I125485
tp4460
sV638.9
p4461
(I1
I127436
tp4462
sVpart
p4463
(I9
I58216
tp4464
sVcanadaina
p4465
(I1
I117863
tp4466
sVuneconom
p4467
(I1
I111384
tp4468
sVfall
p4469
(I13
I114112
tp4470
sValvaro
p4471
(I1
I130446
tp4472
sV188
p4473
(I1
I127642
tp4474
sVcarryforward
p4475
(I3
I99917
tp4476
sVking
p4477
(I1
I127985
tp4478
sVstg
p4479
(I12
I84226
tp4480
sVwhenev
p4481
(I1
I142081
tp4482
sV5,439,000
p4483
(I1
I118236
tp4484
sVremov
p4485
(I3
I110819
tp4486
sV3,100,000
p4487
(I1
I136726
tp4488
sV4.086
p4489
(I1
I140753
tp4490
sV41.35
p4491
(I1
I107945
tp4492
sV18p
p4493
(I1
I107578
tp4494
sVbridg
p4495
(I1
I78009
tp4496
sVecuador
p4497
(I1
I120058
tp4498
sVreinstat
p4499
(I1
I134054
tp4500
sVarrang
p4501
(I3
I116946
tp4502
sVtoward
p4503
(I2
I90725
tp4504
sVcomput
p4505
(I1
I135618
tp4506
sV79,250
p4507
(I1
I131050
tp4508
sVstrengthen
p4509
(I1
I138647
tp4510
sVwell
p4511
(I13
I80108
tp4512
sV888
p4513
(I1
I107618
tp4514
sVbhd
p4515
(I1
I101602
tp4516
sVmarbl
p4517
(I1
I87951
tp4518
sVtelxon
p4519
(I1
I85246
tp4520
sVpackag
p4521
(I3
I111727
tp4522
sVexpir
p4523
(I5
I80054
tp4524
sV498,800
p4525
(I1
I128045
tp4526
sVsell
p4527
(I26
I31576
tp4528
sVpoultri
p4529
(I3
I133356
tp4530
sVwilson
p4531
(I1
I121298
tp4532
sVequival
p4533
(I3
I93598
tp4534
sVpermian
p4535
(I1
I128408
tp4536
sVlin
p4537
(I1
I138458
tp4538
sVviolat
p4539
(I3
I122264
tp4540
sVstapl
p4541
(I1
I120731
tp4542
sVefh
p4543
(I1
I71443
tp4544
sValso
p4545
(I29
I63299
tp4546
sVlabour
p4547
(I3
I97947
tp4548
sVchairman
p4549
(I6
I98231
tp4550
sVu.k
p4551
(I1
I109406
tp4552
sVcongressmen
p4553
(I1
I135540
tp4554
sV93.6
p4555
(I1
I139509
tp4556
sVpipelin
p4557
(I4
I33584
tp4558
sVdunnen
p4559
(I1
I124764
tp4560
sVdistribut
p4561
(I7
I19832
tp4562
sV64
p4563
(I3
I115363
tp4564
sVnewcastl
p4565
(I1
I140194
tp4566
sVgoldman
p4567
(I1
I121638
tp4568
sVswain
p4569
(I1
I134822
tp4570
sVpreviou
p4571
(I6
I94011
tp4572
sVreach
p4573
(I6
I61853
tp4574
sVquota
p4575
(I2
I16759
tp4576
sVreact
p4577
(I1
I137709
tp4578
sVmost
p4579
(I9
I78333
tp4580
sV75
p4581
(I4
I125665
tp4582
sV74
p4583
(I2
I65361
tp4584
sV73
p4585
(I5
I8073
tp4586
sVplan
p4587
(I17
I62098
tp4588
sV70
p4589
(I5
I103055
tp4590
sVgilt
p4591
(I1
I109500
tp4592
sVplab
p4593
(I1
I128358
tp4594
sVeskimo
p4595
(I1
I131954
tp4596
sVswiftli
p4597
(I1
I137719
tp4598
sV5,047,383
p4599
(I1
I138298
tp4600
sVcharg
p4601
(I9
I45121
tp4602
sV7,997,000
p4603
(I1
I115343
tp4604
sV1.20
p4605
(I1
I128693
tp4606
sVseton
p4607
(I1
I121658
tp4608
sVclear
p4609
(I1
I118571
tp4610
sVevacu
p4611
(I1
I123201
tp4612
sVcover
p4613
(I7
I55329
tp4614
sVkm
p4615
(I2
I121158
tp4616
sVsalari
p4617
(I1
I120494
tp4618
sVthree-month
p4619
(I1
I112119
tp4620
sVtmoc
p4621
(I1
I141522
tp4622
sV4,644,000
p4623
(I1
I127366
tp4624
sVccc
p4625
(I1
I114594
tp4626
sVhipt
p4627
(I1
I111697
tp4628
sVbarrel
p4629
(I4
I112900
tp4630
sV2.07
p4631
(I1
I44476
tp4632
sVanti-competit
p4633
(I1
I103533
tp4634
sVsector
p4635
(I3
I98128
tp4636
sVcommerc
p4637
(I2
I80272
tp4638
sVcereal
p4639
(I2
I130505
tp4640
sVgold
p4641
(I5
I115250
tp4642
sVsummer
p4643
(I1
I132032
tp4644
sV3,556,000
p4645
(I1
I138158
tp4646
sVconsult
p4647
(I1
I118803
tp4648
sVnasdaq
p4649
(I1
I128544
tp4650
sVsession
p4651
(I3
I46654
tp4652
sVparticularli
p4653
(I3
I129170
tp4654
sVfreight
p4655
(I3
I123154
tp4656
sV37,500
p4657
(I1
I138904
tp4658
sV0.9
p4659
(I1
I136548
tp4660
sVfind
p4661
(I2
I112748
tp4662
sVpreviously-announc
p4663
(I2
I125710
tp4664
sVimpact
p4665
(I3
I90952
tp4666
sVgiant
p4667
(I1
I62654
tp4668
sV210
p4669
(I1
I137651
tp4670
sVnorthern
p4671
(I3
I132623
tp4672
sVequiti
p4673
(I6
I81786
tp4674
sVmerger
p4675
(I7
I75230
tp4676
sVsolut
p4677
(I1
I134683
tp4678
sVeconomist
p4679
(I4
I124979
tp4680
sVfactor
p4681
(I2
I125285
tp4682
sVbfd
p4683
(I1
I3968
tp4684
sVrotterdam
p4685
(I3
I97212
tp4686
sVunhappi
p4687
(I1
I98369
tp4688
sVborg-warn
p4689
(I1
I139290
tp4690
sVworkforc
p4691
(I2
I98780
tp4692
sVhit
p4693
(I2
I110441
tp4694
sV28.5
p4695
(I2
I128793
tp4696
sVzambia
p4697
(I2
I122453
tp4698
sVfinanc
p4699
(I9
I78019
tp4700
sVobtain
p4701
(I1
I137869
tp4702
sVnativ
p4703
(I1
I131944
tp4704
sV1986/87
p4705
(I6
I93470
tp4706
sV5,000
p4707
(I1
I121197
tp4708
sVpeterson/puritain
p4709
(I1
I111707
tp4710
sV1.81
p4711
(I1
I115510
tp4712
sVambiti
p4713
(I1
I67250
tp4714
sVsilk
p4715
(I1
I102184
tp4716
sVsantiago
p4717
(I1
I137471
tp4718
sVrand'
p4719
(I1
I125587
tp4720
sV1,929,000
p4721
(I1
I141442
tp4722
sVsix-month
p4723
(I1
I129068
tp4724
sVgarcia
p4725
(I1
I137263
tp4726
sVcommon
p4727
(I12
I75798
tp4728
sVswitzerland
p4729
(I4
I125523
tp4730
sVriver
p4731
(I1
I137481
tp4732
sVstn
p4733
(I1
I127496
tp4734
sVwrote
p4735
(I1
I131994
tp4736
sVcommod
p4737
(I1
I114512
tp4738
sVcertif
p4739
(I1
I131272
tp4740
sVset
p4741
(I14
I80572
tp4742
sVdump
p4743
(I1
I49958
tp4744
sV313
p4745
(I1
I103045
tp4746
sVterenc
p4747
(I1
I109658
tp4748
sVstartup
p4749
(I2
I97019
tp4750
sV316
p4751
(I1
I67202
tp4752
sVincreasingli
p4753
(I1
I139868
tp4754
sVsee
p4755
(I12
I32128
tp4756
sVbare
p4757
(I1
I108691
tp4758
sVare
p4759
(I34
I60411
tp4760
sVsea
p4761
(I4
I113442
tp4762
sVcalorie-consci
p4763
(I1
I87795
tp4764
sVtender
p4765
(I12
I74081
tp4766
sVclose
p4767
(I14
I41115
tp4768
sV2.1
p4769
(I2
I124475
tp4770
sVsel
p4771
(I1
I121668
tp4772
sV2.7
p4773
(I2
I123829
tp4774
sV2.6
p4775
(I2
I104641
tp4776
sV2.5
p4777
(I2
I138934
tp4778
sVbarn
p4779
(I1
I92483
tp4780
sVrrim
p4781
(I1
I110555
tp4782
sVcincinnati-bas
p4783
(I1
I138048
tp4784
sVsometh
p4785
(I1
I104461
tp4786
sV315.2
p4787
(I1
I9861
tp4788
sVgroceri
p4789
(I1
I136400
tp4790
sVwor
p4791
(I1
I103732
tp4792
sVa.h.a
p4793
(I1
I135049
tp4794
sVrestructur
p4795
(I4
I99490
tp4796
sVhoenman
p4797
(I1
I116640
tp4798
sV5-1/2
p4799
(I1
I65181
tp4800
sVexperi
p4801
(I1
I111364
tp4802
sV3.0577
p4803
(I1
I128438
tp4804
sValtern
p4805
(I4
I98379
tp4806
sVkorea
p4807
(I1
I138358
tp4808
sVappreci
p4809
(I3
I125354
tp4810
sVend-1986
p4811
(I1
I136866
tp4812
sV2,317,000
p4813
(I1
I96310
tp4814
sVsold
p4815
(I14
I33441
tp4816
sVsucceed
p4817
(I1
I134192
tp4818
sV246-1/2p
p4819
(I1
I115828
tp4820
sVsolv
p4821
(I1
I134762
tp4822
sVdividend
p4823
(I12
I101136
tp4824
sVinertia
p4825
(I1
I129331
tp4826
sVprimarili
p4827
(I1
I125993
tp4828
sVpopul
p4829
(I1
I141132
tp4830
sV8,548
p4831
(I1
I113024
tp4832
sVboth
p4833
(I10
I61698
tp4834
sVlast
p4835
(I32
I47085
tp4836
sV77-3/8
p4837
(I1
I104451
tp4838
sVlicense
p4839
(I1
I103449
tp4840
sVmodulair
p4841
(I1
I134330
tp4842
sVannual
p4843
(I11
I97643
tp4844
sValon
p4845
(I2
I70169
tp4846
sVbachelor
p4847
(I1
I127915
tp4848
sVforeign
p4849
(I11
I44167
tp4850
sV983,000
p4851
(I1
I118092
tp4852
sV1.64
p4853
(I1
I126101
tp4854
sV1.61
p4855
(I1
I96026
tp4856
sV6,067,676
p4857
(I1
I138288
tp4858
sVlong-term
p4859
(I6
I78207
tp4860
sV122.3
p4861
(I1
I119936
tp4862
sVretend
p4863
(I1
I88476
tp4864
sVmean
p4865
(I2
I138628
tp4866
sVload
p4867
(I1
I140284
tp4868
sVconsolid
p4869
(I3
I122558
tp4870
sVpoint
p4871
(I4
I108455
tp4872
sVschedul
p4873
(I5
I30036
tp4874
sVloan
p4875
(I4
I78859
tp4876
sVleon
p4877
(I1
I120068
tp4878
sVresidu
p4879
(I1
I96745
tp4880
sV43,792,000
p4881
(I1
I95976
tp4882
sVone-for-on
p4883
(I2
I133532
tp4884
sVsuppli
p4885
(I9
I110232
tp4886
sVvessel
p4887
(I4
I106645
tp4888
sVmistak
p4889
(I1
I139201
tp4890
sVthroughout
p4891
(I1
I118813
tp4892
sVcoincid
p4893
(I1
I135560
tp4894
sVyukon
p4895
(I1
I132288
tp4896
sVturnov
p4897
(I2
I101755
tp4898
sVunsuccess
p4899
(I2
I70280
tp4900
sVdealt
p4901
(I1
I142091
tp4902
sVidsal
p4903
(I1
I78987
tp4904
sVterritori
p4905
(I1
I141752
tp4906
sVdue
p4907
(I16
I75467
tp4908
sVpc
p4909
(I1
I73258
tp4910
sVpeninsular
p4911
(I1
I106595
tp4912
sVireland
p4913
(I1
I94534
tp4914
sVmonthli
p4915
(I1
I136826
tp4916
sVthreaten
p4917
(I2
I51338
tp4918
sVstrategi
p4919
(I3
I61091
tp4920
sVfirm
p4921
(I7
I18901
tp4922
sVabolit
p4923
(I1
I141172
tp4924
sVpdvsa
p4925
(I1
I116688
tp4926
sVflight
p4927
(I1
I125636
tp4928
sVchemlawn
p4929
(I1
I128250
tp4930
sVhinu.bo
p4931
(I1
I140962
tp4932
sVimag
p4933
(I1
I87785
tp4934
sVgat
p4935
(I2
I31557
tp4936
sVallen-bradley
p4937
(I1
I90058
tp4938
sVgap
p4939
(I1
I134713
tp4940
sVfund
p4941
(I11
I77759
tp4942
sVpartli
p4943
(I3
I82373
tp4944
sV121.4
p4945
(I1
I118216
tp4946
sVgac
p4947
(I1
I139519
tp4948
sVsubcommitte
p4949
(I1
I136122
tp4950
sVpact
p4951
(I4
I112074
tp4952
sVmlc
p4953
(I1
I137998
tp4954
sV966
p4955
(I1
I107588
tp4956
sVlook
p4957
(I6
I48806
tp4958
sVfrozen
p4959
(I1
I120484
tp4960
sV285
p4961
(I1
I135314
tp4962
sVoilwel
p4963
(I1
I123664
tp4964
sVbill
p4965
(I5
I129078
tp4966
sVmln
p4967
(I89
I8654
tp4968
sVbudget
p4969
(I4
I120429
tp4970
sVgovernor
p4971
(I2
I134616
tp4972
sVdurat
p4973
(I1
I140803
tp4974
sV6-1/16
p4975
(I1
I130187
tp4976
sVpace
p4977
(I1
I53773
tp4978
sVwhile
p4979
(I15
I76067
tp4980
sVbilt
p4981
(I1
I123534
tp4982
sVmatch
p4983
(I1
I127316
tp4984
sVabov
p4985
(I8
I119020
tp4986
sVpacc
p4987
(I1
I125739
tp4988
sVfleet
p4989
(I1
I77570
tp4990
sVdi
p4991
(I1
I102487
tp4992
sVrichter
p4993
(I1
I140583
tp4994
sVsmit.t
p4995
(I1
I136806
tp4996
sV19.4
p4997
(I1
I101988
tp4998
sVearli
p4999
(I7
I47534
tp5000
sVcasino
p5001
(I1
I104690
tp5002
sV37
p5003
(I5
I99334
tp5004
sV52.2
p5005
(I1
I138068
tp5006
sVpakistan
p5007
(I1
I140972
tp5008
sVg-7
p5009
(I1
I141971
tp5010
sV521.7
p5011
(I1
I128743
tp5012
sVprotract
p5013
(I1
I130318
tp5014
sVwnac-tv
p5015
(I1
I103459
tp5016
sVillinoi
p5017
(I3
I100737
tp5018
sVcoca-cola
p5019
(I1
I142400
tp5020
sVchase
p5021
(I1
I139270
tp5022
sVexchequ
p5023
(I2
I126806
tp5024
sVbarney
p5025
(I1
I130010
tp5026
sVlayday
p5027
(I1
I131572
tp5028
sVgrant
p5029
(I3
I102795
tp5030
sVmothercar
p5031
(I1
I109825
tp5032
sVmint
p5033
(I1
I139111
tp5034
sVbelong
p5035
(I1
I110857
tp5036
sVstorehous
p5037
(I1
I108746
tp5038
sVitali
p5039
(I2
I94353
tp5040
sV160,000
p5041
(I1
I116728
tp5042
sVconflict
p5043
(I1
I133609
tp5044
sVhigher
p5045
(I9
I85266
tp5046
sVfungicid
p5047
(I1
I111344
tp5048
sVflurri
p5049
(I1
I104094
tp5050
sVoptic
p5051
(I1
I109008
tp5052
sVbonus
p5053
(I1
I114604
tp5054
sVyesterday
p5055
(I9
I48708
tp5056
sVinflat
p5057
(I2
I99471
tp5058
sV70.8
p5059
(I1
I101784
tp5060
sVtemporari
p5061
(I1
I119010
tp5062
sVextrem
p5063
(I1
I111394
tp5064
sVimpedi
p5065
(I1
I140254
tp5066
sVyuan
p5067
(I1
I138687
tp5068
sVtobacco
p5069
(I1
I136538
tp5070
sVrecent
p5071
(I14
I51976
tp5072
sV15.0
p5073
(I1
I123634
tp5074
sV15.1
p5075
(I2
I132427
tp5076
sVlower
p5077
(I9
I107696
tp5078
sVinternationalis
p5079
(I1
I139241
tp5080
sVearmark
p5081
(I1
I138088
tp5082
sVmachineri
p5083
(I2
I106491
tp5084
sVcypru
p5085
(I1
I139379
tp5086
sV15.8
p5087
(I1
I9520
tp5088
sVentri
p5089
(I1
I109648
tp5090
sVspent
p5091
(I1
I127810
tp5092
sVgrossli
p5093
(I1
I131010
tp5094
sVperson
p5095
(I2
I111755
tp5096
sV260
p5097
(I1
I140922
tp5098
sVexpens
p5099
(I5
I105316
tp5100
sVwithdraw
p5101
(I2
I97624
tp5102
sVlandmark
p5103
(I1
I101342
tp5104
sV4.96
p5105
(I1
I131282
tp5106
sV149.00
p5107
(I1
I135284
tp5108
sVspend
p5109
(I3
I126885
tp5110
sVpropos
p5111
(I12
I12202
tp5112
sVexplan
p5113
(I1
I117287
tp5114
sVgrif
p5115
(I1
I131412
tp5116
sV7-3/4
p5117
(I2
I139719
tp5118
sV9.0
p5119
(I1
I119975
tp5120
sV2,658,692
p5121
(I1
I116246
tp5122
sV52.5
p5123
(I1
I128812
tp5124
sV67.5
p5125
(I1
I100919
tp5126
sVbelgium
p5127
(I1
I118610
tp5128
sVshape
p5129
(I1
I108621
tp5130
sVldp
p5131
(I1
I135942
tp5132
sVmob
p5133
(I2
I116333
tp5134
sVunilev
p5135
(I1
I140942
tp5136
sVtaiwan
p5137
(I4
I88375
tp5138
sV-grower
p5139
(I1
I126245
tp5140
sVcontinent
p5141
(I3
I109304
tp5142
sVwage
p5143
(I2
I131138
tp5144
sVcut
p5145
(I17
I54846
tp5146
sVcenepa
p5147
(I1
I137461
tp5148
sVliu
p5149
(I1
I138518
tp5150
sVstimul
p5151
(I1
I117941
tp5152
sV499,000
p5153
(I1
I94484
tp5154
sVcontractor
p5155
(I2
I91353
tp5156
sV2,276,000
p5157
(I1
I92746
tp5158
sV13,908,000
p5159
(I1
I81526
tp5160
sVdixon
p5161
(I1
I136558
tp5162
sVsydney
p5163
(I2
I136618
tp5164
sVsnap
p5165
(I2
I84711
tp5166
sVgemh
p5167
(I1
I96290
tp5168
sVarden
p5169
(I1
I140723
tp5170
sVbuild
p5171
(I2
I124610
tp5172
sV...
p5173
(I1
I139181
tp5174
sVcomplaint
p5175
(I1
I50647
tp5176
sVaustralia
p5177
(I4
I81741
tp5178
sVmarch
p5179
(I24
I81109
tp5180
sVviabil
p5181
(I1
I117208
tp5182
sVbig
p5183
(I2
I129772
tp5184
sVbid
p5185
(I12
I73049
tp5186
sVbuyout
p5187
(I4
I71398
tp5188
sV35,700
p5189
(I1
I132838
tp5190
sV997,000
p5191
(I1
I94160
tp5192
sV1,478,066
p5193
(I1
I116256
tp5194
sVresolv
p5195
(I1
I113719
tp5196
sVearthquak
p5197
(I1
I120137
tp5198
sVarthur
p5199
(I1
I117631
tp5200
sV400,000
p5201
(I1
I133896
tp5202
sVpopular
p5203
(I1
I108601
tp5204
sV54.5
p5205
(I1
I119551
tp5206
sV54.7
p5207
(I1
I119541
tp5208
sVinquiri
p5209
(I1
I141402
tp5210
sV936,000
p5211
(I1
I94464
tp5212
sVr.c
p5213
(I1
I116554
tp5214
sVspring
p5215
(I2
I136489
tp5216
sVsome
p5217
(I15
I63826
tp5218
sVback
p5219
(I3
I104613
tp5220
sV3.6
p5221
(I2
I92379
tp5222
sV3.7
p5223
(I2
I119697
tp5224
sV3.4
p5225
(I2
I119648
tp5226
sVunspecifi
p5227
(I1
I102224
tp5228
sV3.2
p5229
(I1
I127885
tp5230
sVpall
p5231
(I1
I129399
tp5232
sV3.0
p5233
(I2
I114909
tp5234
sVpublica
p5235
(I1
I130563
tp5236
sVinsur
p5237
(I4
I82028
tp5238
sVsurpris
p5239
(I1
I118417
tp5240
sV34,000
p5241
(I1
I124187
tp5242
sVaffili
p5243
(I1
I112738
tp5244
sVand/or
p5245
(I1
I92979
tp5246
sV130
p5247
(I1
I136192
tp5248
sV50,745
p5249
(I1
I116176
tp5250
sVpep
p5251
(I1
I135667
tp5252
sVstagger
p5253
(I1
I132141
tp5254
sVper
p5255
(I19
I73474
tp5256
sV3,930,360
p5257
(I1
I134527
tp5258
sVsubstitut
p5259
(I1
I133130
tp5260
sVlarg
p5261
(I8
I79266
tp5262
sVkhj-tv
p5263
(I1
I102457
tp5264
sV4.80
p5265
(I1
I133482
tp5266
sVbe
p5267
(I61
I23675
tp5268
sVrun
p5269
(I3
I117459
tp5270
sV7.28
p5271
(I1
I117487
tp5272
sV300
p5273
(I5
I102335
tp5274
sV2,323,500
p5275
(I1
I131442
tp5276
sVmartin
p5277
(I1
I140523
tp5278
sVagreement
p5279
(I16
I49191
tp5280
sVthoresen
p5281
(I1
I106575
tp5282
sVbu
p5283
(I2
I120779
tp5284
sVstep
p5285
(I3
I133818
tp5286
sVbp
p5287
(I2
I121847
tp5288
sVsanto
p5289
(I1
I141542
tp5290
sVfeb
p5291
(I5
I116112
tp5292
sVgruntal
p5293
(I1
I138128
tp5294
sVby
p5295
(I65
I38141
tp5296
sVmortgag
p5297
(I2
I96784
tp5298
sVtonnag
p5299
(I1
I123467
tp5300
sV76
p5301
(I1
I122234
tp5302
sVcommun
p5303
(I6
I49679
tp5304
sVbrooklyn
p5305
(I1
I133788
tp5306
sVdisclosur
p5307
(I1
I122423
tp5308
sVconciliatori
p5309
(I1
I118358
tp5310
sVcharl
p5311
(I1
I138098
tp5312
sVtriton
p5313
(I1
I112683
tp5314
sVbailli
p5315
(I1
I132749
tp5316
sV37-3/4
p5317
(I1
I106096
tp5318
sVone-tim
p5319
(I2
I125797
tp5320
sViomega
p5321
(I1
I125935
tp5322
sVinto
p5323
(I12
I49462
tp5324
sVwithin
p5325
(I2
I118870
tp5326
sVici.l
p5327
(I1
I101978
tp5328
sVbeira
p5329
(I1
I122820
tp5330
sVtarof
p5331
(I1
I138258
tp5332
sVirrig
p5333
(I2
I131109
tp5334
sV14.10
p5335
(I1
I93791
tp5336
sVsteven
p5337
(I1
I127486
tp5338
sVannounc
p5339
(I20
I72834
tp5340
sVdurabl
p5341
(I1
I129879
tp5342
sVisrael-bas
p5343
(I1
I99965
tp5344
sVcanal
p5345
(I1
I131128
tp5346
sV282.4
p5347
(I1
I96340
tp5348
sVinstitut
p5349
(I3
I102063
tp5350
sVbangladesh
p5351
(I1
I131020
tp5352
sV3,669,000
p5353
(I1
I138148
tp5354
sVagricultur
p5355
(I10
I87243
tp5356
sVlong
p5357
(I4
I92999
tp5358
sVcustom
p5359
(I5
I97138
tp5360
sVu.
p5361
(I10
I74620
tp5362
sV1.56
p5363
(I1
I132555
tp5364
sVinclud
p5365
(I25
I27280
tp5366
sVsuit
p5367
(I2
I118581
tp5368
sVforward
p5369
(I1
I90126
tp5370
sVoccident
p5371
(I2
I81668
tp5372
sV1.59
p5373
(I1
I10073
tp5374
sVzealand
p5375
(I3
I128134
tp5376
sVlarri
p5377
(I1
I68985
tp5378
sVgetti
p5379
(I1
I138308
tp5380
sVreorgan
p5381
(I2
I69168
tp5382
sVtazara
p5383
(I1
I122712
tp5384
sVjewish
p5385
(I1
I141951
tp5386
sVsubsidiari
p5387
(I18
I39078
tp5388
sVm-1b
p5389
(I1
I131342
tp5390
sVslump
p5391
(I1
I130079
tp5392
sVcloth
p5393
(I1
I136528
tp5394
sV1985/86
p5395
(I3
I94084
tp5396
sVlink
p5397
(I1
I123068
tp5398
sVtranslat
p5399
(I1
I99975
tp5400
sVdelta
p5401
(I1
I132298
tp5402
sVline
p5403
(I8
I94950
tp5404
sVisra
p5405
(I2
I99995
tp5406
sVconsist
p5407
(I2
I112406
tp5408
sVhindustan
p5409
(I1
I140813
tp5410
sV2,485,510
p5411
(I1
I128015
tp5412
sV434,000
p5413
(I1
I124522
tp5414
sVretaliatori
p5415
(I2
I135030
tp5416
sVup
p5417
(I25
I19065
tp5418
sVus
p5419
(I3
I109983
tp5420
sV5.12
p5421
(I1
I131332
tp5422
sV're
p5423
(I1
I108641
tp5424
sVuk
p5425
(I1
I126683
tp5426
sV211,000
p5427
(I1
I45081
tp5428
sVsimilar
p5429
(I8
I65763
tp5430
sVenlarg
p5431
(I2
I83088
tp5432
sVmetal
p5433
(I3
I50667
tp5434
sV``
p5435
(I38
I67798
tp5436
sVrepres
p5437
(I2
I121348
tp5438
sVjanatha
p5439
(I1
I110867
tp5440
sVdefus
p5441
(I1
I135403
tp5442
sVcurb
p5443
(I4
I111299
tp5444
sVhome
p5445
(I4
I109835
tp5446
sV105.3
p5447
(I1
I92066
tp5448
sV105.0
p5449
(I1
I133768
tp5450
sVcotton
p5451
(I2
I102165
tp5452
sVcoven
p5453
(I1
I126071
tp5454
sVgru
p5455
(I1
I138138
tp5456
sVtaro
p5457
(I1
I138238
tp5458
sVinvalid
p5459
(I1
I122443
tp5460
sVnav
p5461
(I1
I133986
tp5462
sVlibrari
p5463
(I2
I130358
tp5464
sVsimilarli
p5465
(I2
I137154
tp5466
sVmanhattan
p5467
(I2
I137969
tp5468
sVwhitehal
p5469
(I2
I81448
tp5470
sVparticular
p5471
(I1
I118600
tp5472
sVroel
p5473
(I1
I124744
tp5474
sVlend
p5475
(I3
I95469
tp5476
sVxon
p5477
(I1
I132091
tp5478
sVathen
p5479
(I1
I107131
tp5480
sVwilliam
p5481
(I1
I79754
tp5482
sVwrongli
p5483
(I1
I73174
tp5484
sVreportedli
p5485
(I1
I134880
tp5486
sVleaf
p5487
(I1
I110069
tp5488
sVago
p5489
(I7
I89885
tp5490
sVlane
p5491
(I1
I69574
tp5492
sVland
p5493
(I4
I96568
tp5494
sVlanc
p5495
(I1
I110011
tp5496
sVcben
p5497
(I1
I141872
tp5498
sVvice
p5499
(I3
I116602
tp5500
sVdismantl
p5501
(I1
I130798
tp5502
sVsvc
p5503
(I1
I132670
tp5504
sVedward
p5505
(I1
I139748
tp5506
sV2002
p5507
(I1
I75636
tp5508
sVdepth
p5509
(I2
I112995
tp5510
sVappendix
p5511
(I1
I140274
tp5512
sVsvz
p5513
(I1
I98339
tp5514
sVcame
p5515
(I4
I118965
tp5516
sV2,455,000
p5517
(I1
I136568
tp5518
sVtreati
p5519
(I1
I130769
tp5520
sVh.k
p5521
(I1
I124899
tp5522
sV6.28
p5523
(I1
I127396
tp5524
sVgv
p5525
(I1
I134458
tp5526
sVtrustco
p5527
(I1
I137899
tp5528
sVtruck
p5529
(I1
I134102
tp5530
sVminer
p5531
(I2
I122615
tp5532
sVbroaden
p5533
(I1
I59765
tp5534
sVgy
p5535
(I2
I102408
tp5536
sVcobalt
p5537
(I1
I122914
tp5538
sVluxembourg
p5539
(I1
I139052
tp5540
sVga
p5541
(I10
I44031
tp5542
sVgo
p5543
(I4
I64561
tp5544
sV1/4
p5545
(I1
I139699
tp5546
sV15,000
p5547
(I1
I122205
tp5548
sV43.7
p5549
(I1
I114948
tp5550
sVhampshir
p5551
(I1
I132769
tp5552
sVndta
p5553
(I1
I133669
tp5554
sVcompact
p5555
(I1
I130387
tp5556
sVprivat
p5557
(I7
I88525
tp5558
sVsoro
p5559
(I1
I127975
tp5560
sVrtc
p5561
(I1
I137551
tp5562
sV1,037,000
p5563
(I1
I99775
tp5564
sVquarterli
p5565
(I7
I90643
tp5566
sVlilli
p5567
(I1
I140703
tp5568
sVyoung
p5569
(I1
I117641
tp5570
sVsend
p5571
(I1
I122500
tp5572
sVmower
p5573
(I1
I136667
tp5574
sVstatutori
p5575
(I2
I122131
tp5576
sVnippon
p5577
(I1
I132868
tp5578
sVcartier
p5579
(I1
I140354
tp5580
sVgold-bear
p5581
(I1
I137431
tp5582
sVshorter-d
p5583
(I1
I129810
tp5584
sVmeyo
p5585
(I1
I86895
tp5586
sVopposit
p5587
(I1
I135490
tp5588
sVsens
p5589
(I1
I66122
tp5590
sV2,840
p5591
(I1
I139609
tp5592
sVindemn
p5593
(I1
I106783
tp5594
sVsent
p5595
(I1
I137095
tp5596
sVcheapli
p5597
(I1
I141262
tp5598
sVgarden
p5599
(I1
I142180
tp5600
sVdisclos
p5601
(I3
I101545
tp5602
sVrole
p5603
(I2
I140037
tp5604
sVprudential-bach
p5605
(I1
I69005
tp5606
sVignasio
p5607
(I1
I137381
tp5608
sV8,872,000
p5609
(I1
I81516
tp5610
sVelectron
p5611
(I3
I91372
tp5612
sVvolum
p5613
(I2
I119850
tp5614
sVdisast
p5615
(I1
I106126
tp5616
sV382.3
p5617
(I1
I132387
tp5618
sVtri
p5619
(I3
I18983
tp5620
sV777,667
p5621
(I1
I134507
tp5622
sVtro
p5623
(I2
I112600
tp5624
sVtrn
p5625
(I1
I117257
tp5626
sV390.7
p5627
(I1
I140882
tp5628
sVfewer
p5629
(I1
I138568
tp5630
sV7.1
p5631
(I1
I136420
tp5632
sVappar
p5633
(I1
I122340
tp5634
sVcar
p5635
(I1
I136341
tp5636
sVnine-day
p5637
(I1
I140783
tp5638
sV2.20
p5639
(I1
I128172
tp5640
sV2.21
p5641
(I1
I132535
tp5642
sVover-depend
p5643
(I1
I135725
tp5644
sVsown
p5645
(I1
I141062
tp5646
sV568
p5647
(I1
I127692
tp5648
sVcap
p5649
(I2
I77059
tp5650
sVnatur
p5651
(I5
I118256
tp5652
sVcrop
p5653
(I4
I110500
tp5654
sVporl.l
p5655
(I1
I106635
tp5656
sVjump
p5657
(I2
I104554
tp5658
sVchina'
p5659
(I1
I124949
tp5660
sVvideo
p5661
(I2
I116055
tp5662
sVzy
p5663
(I1
I95966
tp5664
sV93.2
p5665
(I1
I139439
tp5666
sVindex
p5667
(I3
I119772
tp5668
sVpower
p5669
(I3
I125208
tp5670
sVcompar
p5671
(I12
I89740
tp5672
sVlehman
p5673
(I2
I58314
tp5674
sVaccess
p5675
(I3
I59470
tp5676
sV;
(I118
I2833
tp5677
sVwhatev
p5678
(I1
I123125
tp5679
sVbecor
p5680
(I1
I121446
tp5681
sV3,358,000
p5682
(I1
I92736
tp5683
sVabsolut
p5684
(I1
I119571
tp5685
sV435,900
p5686
(I1
I133306
tp5687
sV4,359,000
p5688
(I1
I118206
tp5689
sVpunch
p5690
(I1
I135755
tp5691
sVn.a
p5692
(I2
I124378
tp5693
sVclosur
p5694
(I1
I77049
tp5695
sV20/64
p5696
(I1
I113063
tp5697
sVnortheast
p5698
(I1
I141921
tp5699
sVn.z
p5700
(I2
I128192
tp5701
sVballi
p5702
(I1
I104583
tp5703
sVbecom
p5704
(I6
I124305
tp5705
sVsinc
p5706
(I7
I126339
tp5707
sVstockbrok
p5708
(I1
I126855
tp5709
sVresidenti
p5710
(I1
I134370
tp5711
sV39
p5712
(I1
I100889
tp5713
sV38
p5714
(I1
I76533
tp5715
sVconvers
p5716
(I1
I130377
tp5717
sVseven-year
p5718
(I1
I129008
tp5719
sV33
p5720
(I3
I105635
tp5721
sV32
p5722
(I6
I86812
tp5723
sV31
p5724
(I22
I86015
tp5725
sV30
p5726
(I23
I19386
tp5727
sVtechnolog
p5728
(I6
I32387
tp5729
sValaska
p5730
(I1
I131690
tp5731
sV35
p5732
(I5
I73420
tp5733
sV34
p5734
(I3
I99110
tp5735
sVtonn
p5736
(I23
I52217
tp5737
sVsurvey
p5738
(I2
I126421
tp5739
sVctc
p5740
(I1
I135185
tp5741
sVopinion
p5742
(I3
I133571
tp5743
sVchang
p5744
(I8
I87124
tp5745
sV4.95
p5746
(I1
I127346
tp5747
sVmaker
p5748
(I2
I113487
tp5749
sVchanc
p5750
(I6
I113862
tp5751
sVreinsur
p5752
(I2
I106690
tp5753
sV199.4
p5754
(I1
I134251
tp5755
sVemploye
p5756
(I4
I65844
tp5757
sVu.k.
p5758
(I14
I83651
tp5759
sV67.0
p5760
(I1
I139409
tp5761
sVforbid
p5762
(I1
I133071
tp5763
sVappli
p5764
(I3
I31529
tp5765
sVapproxim
p5766
(I2
I121997
tp5767
sV7.54
p5768
(I1
I117497
tp5769
sV8,157,864
p5770
(I1
I142330
tp5771
sV4.75
p5772
(I1
I141562
tp5773
sVprestig
p5774
(I1
I120274
tp5775
sVmotor
p5776
(I1
I136331
tp5777
sVpl480
p5778
(I1
I131512
tp5779
sVwritedown
p5780
(I2
I44138
tp5781
sV650.7
p5782
(I1
I140862
tp5783
sVfed
p5784
(I3
I69140
tp5785
sV64.9
p5786
(I1
I126111
tp5787
sVfrom
p5788
(I76
I17170
tp5789
sV&
(I118
I554
tp5790
sVchi
p5791
(I1
I138528
tp5792
sVhudson
p5793
(I2
I105673
tp5794
sVchl
p5795
(I1
I134390
tp5796
sVfibr
p5797
(I1
I102214
tp5798
sVhi-port
p5799
(I1
I111687
tp5800
sVfew
p5801
(I4
I104509
tp5802
sVtwo-third
p5803
(I1
I120167
tp5804
sVintend
p5805
(I3
I121727
tp5806
sVmidday
p5807
(I1
I48083
tp5808
sVremaind
p5809
(I2
I103109
tp5810
sVsort
p5811
(I1
I113748
tp5812
sViit
p5813
(I1
I117979
tp5814
sVparliament
p5815
(I4
I113645
tp5816
sV1/2
p5817
(I2
I108436
tp5818
sVsharpli
p5819
(I5
I103904
tp5820
sVcomparison
p5821
(I1
I138667
tp5822
sV0.5
p5823
(I3
I101631
tp5824
sV41.5
p5825
(I1
I133798
tp5826
sV41.4
p5827
(I1
I99795
tp5828
sV41.2
p5829
(I1
I132496
tp5830
sVtrain
p5831
(I1
I123379
tp5832
sV8
(I1
I128055
tp5833
sV1,360,000
p5834
(I1
I116035
tp5835
sVgambl
p5836
(I1
I104700
tp5837
sVmitsubishi
p5838
(I1
I114859
tp5839
sVharvest
p5840
(I4
I131187
tp5841
sV43.3
p5842
(I1
I92756
tp5843
sV14.09
p5844
(I1
I93801
tp5845
sVaccount
p5846
(I9
I83524
tp5847
sVdarwin
p5848
(I1
I141712
tp5849
sV172,000
p5850
(I1
I118196
tp5851
sValic
p5852
(I1
I141702
tp5853
sVsterling-denomin
p5854
(I1
I108611
tp5855
sVcheshir
p5856
(I1
I142210
tp5857
sVjustic
p5858
(I3
I111999
tp5859
sVunreal
p5860
(I1
I44157
tp5861
sV1.49
p5862
(I1
I96016
tp5863
sV1.48
p5864
(I1
I115520
tp5865
sVdrill
p5866
(I4
I112479
tp5867
sV61.9
p5868
(I1
I114938
tp5869
sVmeet
p5870
(I11
I29804
tp5871
sVapril/may
p5872
(I1
I141822
tp5873
sVpeke
p5874
(I1
I133916
tp5875
sVdivestitur
p5876
(I1
I123712
tp5877
sVcontrol
p5878
(I10
I82430
tp5879
sVtap
p5880
(I1
I109149
tp5881
sV3,516,000
p5882
(I1
I133679
tp5883
sV4.07
p5884
(I1
I131322
tp5885
sVprocess
p5886
(I3
I117951
tp5887
sV0.3
p5888
(I3
I119744
tp5889
sVslim
p5890
(I1
I135442
tp5891
sVtax
p5892
(I12
I37818
tp5893
sV0.4
p5894
(I3
I123477
tp5895
sV0.7
p5896
(I2
I130089
tp5897
sV0.6
p5898
(I1
I101745
tp5899
sVhigh
p5900
(I4
I77163
tp5901
sVslip
p5902
(I1
I138726
tp5903
sVsought
p5904
(I1
I85003
tp5905
sV22,522,000
p5906
(I1
I128713
tp5907
sVsuiss
p5908
(I1
I138805
tp5909
sVsir
p5910
(I1
I115471
tp5911
sVmartyr
p5912
(I1
I130729
tp5913
sVforese
p5914
(I3
I118908
tp5915
sV4.00
p5916
(I1
I141602
tp5917
sVpure
p5918
(I1
I107455
tp5919
sVsix
p5920
(I14
I75068
tp5921
sVtanzania-zambia
p5922
(I1
I122692
tp5923
sVgeorg
p5924
(I2
I115481
tp5925
sVconn
p5926
(I1
I142220
tp5927
sV23.3
p5928
(I1
I42895
tp5929
sVwarner
p5930
(I2
I139350
tp5931
sV47.4
p5932
(I1
I132397
tp5933
sVstock
p5934
(I30
I64878
tp5935
sVfare
p5936
(I1
I120798
tp5937
sVexpress
p5938
(I6
I57531
tp5939
sVattend
p5940
(I2
I139251
tp5941
sVyearli
p5942
(I1
I139072
tp5943
sV3,262,000
p5944
(I1
I100899
tp5945
sVre-weight
p5946
(I1
I129742
tp5947
sVronald
p5948
(I1
I135530
tp5949
sVpressur
p5950
(I2
I135471
tp5951
sVunidentifi
p5952
(I1
I141392
tp5953
sV94.90
p5954
(I1
I133041
tp5955
sVnpt
p5956
(I1
I137819
tp5957
sVredund
p5958
(I2
I98487
tp5959
sVphilosophi
p5960
(I1
I139231
tp5961
sV5,463,000
p5962
(I1
I96484
tp5963
sVphysic
p5964
(I2
I138875
tp5965
sVvillag
p5966
(I2
I131070
tp5967
sValloc
p5968
(I2
I119629
tp5969
sVemperor
p5970
(I1
I139141
tp5971
sVessenti
p5972
(I1
I140076
tp5973
sVguilder
p5974
(I2
I97928
tp5975
sVseriou
p5976
(I4
I79690
tp5977
sVstocks/american
p5978
(I1
I103787
tp5979
sVissu
p5980
(I17
I65380
tp5981
sVchief
p5982
(I8
I69367
tp5983
sVallow
p5984
(I9
I56673
tp5985
sValloy
p5986
(I1
I106086
tp5987
sV143,000
p5988
(I1
I110736
tp5989
sVhouston
p5990
(I1
I140334
tp5991
sVreuter
p5992
(I9
I89524
tp5993
sV8.50
p5994
(I1
I141572
tp5995
sVmove
p5996
(I8
I70043
tp5997
sVempresa
p5998
(I1
I130553
tp5999
sV2,191
p6000
(I1
I114246
tp6001
sVown
p6002
(I13
I70649
tp6003
sV155,764
p6004
(I1
I100125
tp6005
sV135
p6006
(I1
I127326
tp6007
sVnon-season
p6008
(I1
I119965
tp6009
sVwarren
p6010
(I1
I78977
tp6011
sVperfect
p6012
(I1
I109900
tp6013
sVparliamentari
p6014
(I2
I113925
tp6015
sVconsensu
p6016
(I1
I133866
tp6017
sVla
p6018
(I1
I95851
tp6019
sVlo
p6020
(I2
I90297
tp6021
sVlabor
p6022
(I1
I136222
tp6023
sVlt
p6024
(I119
I1689
tp6025
sV4-36-2-10w2
p6026
(I1
I112816
tp6027
sVdecad
p6028
(I1
I137631
tp6029
sVholiday
p6030
(I1
I113180
tp6031
sVcorroon
p6032
(I1
I142121
tp6033
sVglass-mak
p6034
(I1
I136955
tp6035
sVmicrobiolog
p6036
(I1
I110545
tp6037
sV11,445,000
p6038
(I1
I44593
tp6039
sVnakason
p6040
(I1
I135334
tp6041
sVamoskeag
p6042
(I1
I137879
tp6043
sVhandl
p6044
(I2
I123135
tp6045
sVauto
p6046
(I1
I76947
tp6047
sVoveral
p6048
(I2
I136302
tp6049
sVstrateg
p6050
(I3
I61916
tp6051
sV158
p6052
(I1
I127652
tp6053
sVtribun
p6054
(I1
I135000
tp6055
sVdar
p6056
(I1
I122761
tp6057
sVinstead
p6058
(I3
I112046
tp6059
sVinvestor
p6060
(I9
I82595
tp6061
sVday
p6062
(I11
I65191
tp6063
sVyesterday'
p6064
(I1
I133846
tp6065
sVabolish
p6066
(I1
I138983
tp6067
sVanyth
p6068
(I1
I135510
tp6069
sVmodx
p6070
(I1
I134340
tp6071
sVunlimit
p6072
(I1
I141212
tp6073
sVfebruari
p6074
(I11
I104928
tp6075
sVweather
p6076
(I3
I119985
tp6077
sVbil
p6078
(I1
I133502
tp6079
sVpolit
p6080
(I2
I125646
tp6081
sVfive-year
p6082
(I2
I113142
tp6083
sVhigh-yield
p6084
(I1
I129389
tp6085
sVpetrobra
p6086
(I1
I121436
tp6087
sV4,711,000
p6088
(I1
I138188
tp6089
sV5,100,000
p6090
(I1
I136736
tp6091
sVintellig
p6092
(I1
I113526
tp6093
sV0.2
p6094
(I1
I136390
tp6095
sV700
p6096
(I1
I135294
tp6097
sVimposit
p6098
(I1
I139023
tp6099
sVgrower
p6100
(I1
I126300
tp6101
sV89
p6102
(I1
I133728
tp6103
sV676,341
p6104
(I1
I134567
tp6105
sV864,000
p6106
(I1
I124465
tp6107
sV317p
p6108
(I1
I140683
tp6109
sV82
p6110
(I1
I124120
tp6111
sV83
p6112
(I2
I74062
tp6113
sV80
p6114
(I5
I118142
tp6115
sVsecretari
p6116
(I1
I95749
tp6117
sV87
p6118
(I1
I126654
tp6119
sVspecial
p6120
(I9
I46537
tp6121
sVout
p6122
(I9
I67483
tp6123
sVmartha
p6124
(I1
I135264
tp6125
sVrainfal
p6126
(I1
I140423
tp6127
sV260,000
p6128
(I1
I138608
tp6129
sV2.30
p6130
(I1
I141232
tp6131
sV'
(I14
I60769
tp6132
sV34,800
p6133
(I1
I132809
tp6134
sVinfluenc
p6135
(I2
I124784
tp6136
sVsemi-gilt
p6137
(I1
I125597
tp6138
sVrev
p6139
(I32
I9530
tp6140
sVcategori
p6141
(I1
I139938
tp6142
sVdominion
p6143
(I1
I117833
tp6144
sVbarley
p6145
(I1
I141792
tp6146
sVcounter-bid
p6147
(I1
I141512
tp6148
sV2.85
p6149
(I1
I141332
tp6150
sVsubmers
p6151
(I2
I112543
tp6152
sV50.05
p6153
(I1
I107935
tp6154
sVdefens
p6155
(I2
I91334
tp6156
sVred
p6157
(I1
I114634
tp6158
sVwholli
p6159
(I4
I73203
tp6160
sVclarifi
p6161
(I1
I70251
tp6162
sVtakeov
p6163
(I5
I70793
tp6164
sV1987
p6165
(I19
I88981
tp6166
sVregulatori
p6167
(I2
I102898
tp6168
sVspot
p6169
(I1
I139171
tp6170
sV2.51
p6171
(I1
I132506
tp6172
sV290,000
p6173
(I1
I99835
tp6174
sVshekel
p6175
(I1
I100014
tp6176
sVgaug
p6177
(I1
I141192
tp6178
sVecu
p6179
(I1
I107867
tp6180
sV2.50
p6181
(I1
I141242
tp6182
sVyork
p6183
(I6
I85138
tp6184
sV12,500,000
p6185
(I1
I45229
tp6186
sVusual
p6187
(I1
I133906
tp6188
sVreleas
p6189
(I3
I119879
tp6190
sVregion
p6191
(I2
I137293
tp6192
sVphilip
p6193
(I2
I121678
tp6194
sV20,000
p6195
(I1
I136886
tp6196
sV449,000
p6197
(I1
I123554
tp6198
sVmainland
p6199
(I1
I138697
tp6200
sV2.55
p6201
(I1
I141662
tp6202
sVcould
p6203
(I17
I58559
tp6204
sVsegreg
p6205
(I1
I139988
tp6206
sV918,000
p6207
(I1
I140394
tp6208
sVkeep
p6209
(I2
I78958
tp6210
sVarbitrag
p6211
(I1
I104104
tp6212
sVcorp.
p6213
(I1
I134142
tp6214
sV997.1
p6215
(I1
I10306
tp6216
sVoutsid
p6217
(I3
I91812
tp6218
sVltd
p6219
(I20
I41965
tp6220
sVretain
p6221
(I6
I76976
tp6222
sVretail
p6223
(I4
I109678
tp6224
sVsouth
p6225
(I6
I121886
tp6226
sVrespond
p6227
(I3
I117402
tp6228
sVwestar
p6229
(I1
I91840
tp6230
sV452
p6231
(I1
I115779
tp6232
sVqualiti
p6233
(I1
I139838
tp6234
sVsach
p6235
(I1
I121648
tp6236
sV318
p6237
(I1
I132180
tp6238
sVowner
p6239
(I1
I73248
tp6240
sVfacil
p6241
(I7
I100665
tp6242
sVcorrected-network
p6243
(I1
I116045
tp6244
sVbois
p6245
(I1
I134350
tp6246
sVtwo-
p6247
(I1
I129522
tp6248
sVunfavour
p6249
(I1
I129341
tp6250
sVhee
p6251
(I1
I126205
tp6252
sV25,667,000
p6253
(I1
I128723
tp6254
sVlicens
p6255
(I2
I102709
tp6256
sVsystem
p6257
(I11
I99610
tp6258
sV1,986,710
p6259
(I1
I128025
tp6260
sVharuo
p6261
(I1
I136042
tp6262
sVtheir
p6263
(I19
I50999
tp6264
sVattack
p6265
(I1
I98946
tp6266
sVexpenditur
p6267
(I2
I127113
tp6268
sV651
p6269
(I1
I139639
tp6270
sVtermin
p6271
(I5
I34808
tp6272
sVrupe
p6273
(I2
I140843
tp6274
sVzambia'
p6275
(I1
I123330
tp6276
sVpre-budget
p6277
(I1
I108245
tp6278
sVtownsend
p6279
(I1
I106565
tp6280
sVpurol
p6281
(I1
I71378
tp6282
sVshell
p6283
(I2
I113393
tp6284
sVgear
p6285
(I1
I121573
tp6286
sV43.2
p6287
(I1
I138038
tp6288
sVjuli
p6289
(I2
I97295
tp6290
sVgreenbaum
p6291
(I1
I129990
tp6292
sV7.45
p6293
(I1
I124889
tp6294
sVbyron
p6295
(I1
I131984
tp6296
sVfour-year
p6297
(I1
I128998
tp6298
sVonshor
p6299
(I1
I141732
tp6300
sVaccompani
p6301
(I1
I137641
tp6302
sV2,194,000
p6303
(I1
I141432
tp6304
sV9.5
p6305
(I1
I101725
tp6306
sVdiminish
p6307
(I2
I115687
tp6308
sVreaffirm
p6309
(I2
I100378
tp6310
sVnobodi
p6311
(I1
I142061
tp6312
sVsteel
p6313
(I3
I132878
tp6314
sV3,354
p6315
(I1
I139619
tp6316
sVholland
p6317
(I1
I137561
tp6318
sV5,669,682
p6319
(I1
I113625
tp6320
sV2.9
p6321
(I2
I35451
tp6322
sVstructur
p6323
(I5
I125816
tp6324
sV1,394,000
p6325
(I1
I123624
tp6326
sVsweden
p6327
(I1
I108661
tp6328
sVlight
p6329
(I6
I129419
tp6330
sV9,282,000
p6331
(I1
I116025
tp6332
sVpsycholog
p6333
(I2
I109018
tp6334
sVsteep
p6335
(I1
I133856
tp6336
sV1.4
p6337
(I2
I114986
tp6338
sV1.5
p6339
(I3
I124494
tp6340
sVinra
p6341
(I1
I118397
tp6342
sV1.1
p6343
(I8
I101464
tp6344
sV1.3
p6345
(I1
I137273
tp6346
sVfowl
p6347
(I1
I139599
tp6348
sVacuqisit
p6349
(I1
I142151
tp6350
sVpartnership
p6351
(I3
I116660
tp6352
sV1.8
p6353
(I1
I141082
tp6354
sV1.9
p6355
(I3
I115212
tp6356
sVtonight
p6357
(I3
I84730
tp6358
sV2.3
p6359
(I2
I123505
tp6360
sV3.80/90
p6361
(I1
I119159
tp6362
sVnetherland
p6363
(I2
I94445
tp6364
sVhave
p6365
(I31
I61386
tp6366
sVreserv
p6367
(I12
I45239
tp6368
sVneed
p6369
(I10
I67681
tp6370
sVkeener
p6371
(I1
I138348
tp6372
sVfeatur
p6373
(I1
I137233
tp6374
sV2.0
p6375
(I2
I124591
tp6376
sVsatoshi
p6377
(I1
I134635
tp6378
sVmesseng
p6379
(I1
I71491
tp6380
sVrout
p6381
(I2
I122653
tp6382
sVmid
p6383
(I2
I76407
tp6384
sVstearn
p6385
(I1
I105461
tp6386
sVpreced
p6387
(I1
I132238
tp6388
sVwhich
p6389
(I50
I26781
tp6390
sV1.30
p6391
(I1
I94372
tp6392
sV115.3
p6393
(I1
I131242
tp6394
sVdivert
p6395
(I2
I122596
tp6396
sVfropm
p6397
(I1
I128065
tp6398
sV1.34
p6399
(I1
I96006
tp6400
sVgraviti
p6401
(I1
I112955
tp6402
sVsingl
p6403
(I2
I109037
tp6404
sVsoar
p6405
(I1
I107208
tp6406
sVunless
p6407
(I5
I80488
tp6408
sVe.f.
p6409
(I1
I72440
tp6410
sVfidel
p6411
(I1
I102766
tp6412
sVpetrol
p6413
(I1
I116708
tp6414
sVwho
p6415
(I5
I90243
tp6416
sVwhi
p6417
(I1
I117449
tp6418
sVdiscov
p6419
(I1
I127682
tp6420
sVpresid
p6421
(I16
I69738
tp6422
sVwht
p6423
(I1
I81467
tp6424
sVeight
p6425
(I10
I44486
tp6426
sVht
p6427
(I2
I111850
tp6428
sV15.50
p6429
(I1
I121516
tp6430
sVstoppag
p6431
(I1
I121387
tp6432
sVsegment
p6433
(I2
I89298
tp6434
sVpayment
p6435
(I6
I115706
tp6436
sVfair
p6437
(I1
I137193
tp6438
sVsomewh
p6439
(I1
I89259
tp6440
sVplacement
p6441
(I1
I82881
tp6442
sVunanim
p6443
(I2
I131642
tp6444
sValaskan
p6445
(I1
I131632
tp6446
sVstronger
p6447
(I1
I116416
tp6448
sV2,266,000
p6449
(I1
I99765
tp6450
sVface
p6451
(I3
I106155
tp6452
sVinde
p6453
(I1
I129722
tp6454
sVdeni
p6455
(I4
I103742
tp6456
sV84.9
p6457
(I1
I134980
tp6458
sVnisshin
p6459
(I1
I132981
tp6460
sVdetermin
p6461
(I1
I134950
tp6462
sVundersea
p6463
(I1
I113516
tp6464
sVtransamerica
p6465
(I2
I81649
tp6466
sVscrap
p6467
(I1
I138488
tp6468
sVfact
p6469
(I3
I132004
tp6470
sVaffair
p6471
(I2
I97585
tp6472
sVmereeni
p6473
(I1
I141772
tp6474
sVentertain
p6475
(I2
I130289
tp6476
sVparticip
p6477
(I5
I121774
tp6478
sVecomom
p6479
(I1
I129830
tp6480
sVbring
p6481
(I5
I65307
tp6482
sVelig
p6483
(I1
I130739
tp6484
sVlloyd
p6485
(I1
I106193
tp6486
sVtrane
p6487
(I1
I142280
tp6488
sVportfolio
p6489
(I1
I129752
tp6490
sVfear
p6491
(I1
I135822
tp6492
sVdiscoveri
p6493
(I1
I137769
tp6494
sVtexa
p6495
(I2
I116768
tp6496
sVmozambican
p6497
(I1
I122810
tp6498
sVstaff
p6499
(I1
I80252
tp6500
sVredirect
p6501
(I1
I135715
tp6502
sVnearer
p6503
(I1
I99407
tp6504
sVmackenzi
p6505
(I1
I126875
tp6506
sVhighest
p6507
(I1
I114256
tp6508
sVlocat
p6509
(I1
I137341
tp6510
sVplanter
p6511
(I1
I141412
tp6512
sVtire
p6513
(I2
I135195
tp6514
sVdenatur
p6515
(I1
I107905
tp6516
sV(
(I24
I46055
tp6517
sVlsa
p6518
(I1
I101397
tp6519
sVrash
p6520
(I1
I129351
tp6521
sVshould
p6522
(I11
I86604
tp6523
sVmanufactur
p6524
(I5
I102091
tp6525
sVearner
p6526
(I1
I136242
tp6527
sVwon
p6528
(I1
I138677
tp6529
sVtape
p6530
(I1
I130348
tp6531
sVfuel
p6532
(I2
I108207
tp6533
sVb
(I1
I126999
tp6534
sVdiscontinu
p6535
(I7
I111157
tp6536
sVhope
p6537
(I2
I117355
tp6538
sVvigor
p6539
(I2
I130991
tp6540
sV142.7
p6541
(I1
I119810
tp6542
sVcontribut
p6543
(I4
I67157
tp6544
sV142.2
p6545
(I1
I119820
tp6546
sVbeat
p6547
(I1
I108835
tp6548
sVconvert
p6549
(I4
I108701
tp6550
sVmichigan
p6551
(I2
I115025
tp6552
sV700,000
p6553
(I1
I121367
tp6554
sVhire
p6555
(I1
I120474
tp6556
sVbear
p6557
(I2
I105442
tp6558
sVautom
p6559
(I1
I90097
tp6560
sV120
p6561
(I3
I79042
tp6562
sVjoint
p6563
(I6
I59847
tp6564
sVbean
p6565
(I1
I141862
tp6566
sVtransco
p6567
(I1
I114009
tp6568
sV125
p6569
(I1
I125880
tp6570
sVdownturn
p6571
(I1
I137699
tp6572
sVonex
p6573
(I1
I76927
tp6574
sVcleric
p6575
(I1
I136252
tp6576
sVspur
p6577
(I1
I109973
tp6578
sVlucki
p6579
(I1
I140463
tp6580
sVshr
p6581
(I40
I6049
tp6582
sVenabl
p6583
(I4
I109436
tp6584
sVorgan
p6585
(I5
I12550
tp6586
sVtwice
p6587
(I1
I133629
tp6588
sVupper
p6589
(I1
I141692
tp6590
sVdenmark
p6591
(I1
I94494
tp6592
sV256,600
p6593
(I1
I133394
tp6594
sVdebentur
p6595
(I2
I75211
tp6596
sV966,200
p6597
(I1
I133267
tp6598
sVgalvan
p6599
(I1
I106038
tp6600
sVtableland
p6601
(I1
I112806
tp6602
sVshc
p6603
(I1
I113412
tp6604
sVintegr
p6605
(I2
I60750
tp6606
sVcontain
p6607
(I6
I74557
tp6608
sVreil
p6609
(I1
I136608
tp6610
sVohio
p6611
(I1
I141502
tp6612
sV788,099
p6613
(I1
I123742
tp6614
sVview
p6615
(I3
I57613
tp6616
sVstebbin
p6617
(I1
I132278
tp6618
sVgvmi
p6619
(I1
I134487
tp6620
sVqtr
p6621
(I30
I5282
tp6622
sV34.7
p6623
(I1
I92096
tp6624
sV34.6
p6625
(I1
I115143
tp6626
sVwe
p6627
(I8
I79347
tp6628
sVcpi-u
p6629
(I1
I136212
tp6630
sVcpi-w
p6631
(I1
I136262
tp6632
sV36.9
p6633
(I1
I81629
tp6634
sV36.5
p6635
(I1
I115411
tp6636
sV36.4
p6637
(I1
I132916
tp6638
sV36.3
p6639
(I2
I132516
tp6640
sVstatu
p6641
(I1
I113093
tp6642
sVwa
p6643
(I46
I53783
tp6644
sVreform
p6645
(I1
I135500
tp6646
sVtaggart
p6647
(I1
I79764
tp6648
sVnationwid
p6649
(I1
I120989
tp6650
sVmisus
p6651
(I1
I91165
tp6652
sV36,000
p6653
(I1
I122885
tp6654
sVconveni
p6655
(I1
I140573
tp6656
sVdlr
p6657
(I74
I6842
tp6658
sVstate
p6659
(I15
I57235
tp6660
sVschoufour
p6661
(I1
I98359
tp6662
sVentrant
p6663
(I1
I83514
tp6664
sVcensu
p6665
(I1
I124919
tp6666
sVcrude
p6667
(I3
I117024
tp6668
sVchairmen
p6669
(I1
I69970
tp6670
sVcomplement
p6671
(I1
I135992
tp6672
sVmidnight
p6673
(I1
I128280
tp6674
sVindefinit
p6675
(I1
I121377
tp6676
sVcentr
p6677
(I1
I124714
tp6678
sVverifi
p6679
(I1
I141981
tp6680
sVbarreto
p6681
(I1
I130456
tp6682
sV1,750
p6683
(I2
I136697
tp6684
sVlaroch
p6685
(I1
I137799
tp6686
sV5.35
p6687
(I1
I96056
tp6688
sVjob
p6689
(I1
I51357
tp6690
sVentir
p6691
(I3
I126033
tp6692
sV5.31
p6693
(I1
I127905
tp6694
sVkey
p6695
(I2
I120352
tp6696
sV13.76
p6697
(I1
I93543
tp6698
sVbreaker
p6699
(I1
I138368
tp6700
sVendo
p6701
(I1
I128486
tp6702
sVaddit
p6703
(I5
I91260
tp6704
sVbty.l
p6705
(I1
I115461
tp6706
sV2.42
p6707
(I2
I127525
tp6708
sVproverbi
p6709
(I1
I108805
tp6710
sVzccm
p6711
(I1
I122586
tp6712
sV381
p6713
(I1
I115677
tp6714
sV2.48
p6715
(I1
I127406
tp6716
sVdrug
p6717
(I2
I124562
tp6718
sVapril
p6719
(I30
I17911
tp6720
sVgrain
p6721
(I3
I114821
tp6722
sVcommitte
p6723
(I4
I113817
tp6724
sVgti
p6725
(I1
I138318
tp6726
sV32.1
p6727
(I2
I126186
tp6728
sV32.5
p6729
(I1
I44436
tp6730
sV32.6
p6731
(I1
I135156
tp6732
sVcomment
p6733
(I5
I64409
tp6734
sVtransamerican
p6735
(I1
I125729
tp6736
sV62.08
p6737
(I1
I141612
tp6738
sVco
p6739
(I39
I57714
tp6740
sVwall
p6741
(I2
I62616
tp6742
sV56.2
p6743
(I1
I118102
tp6744
sVtuesday
p6745
(I3
I119485
tp6746
sVcomplementari
p6747
(I1
I141722
tp6748
sVnear-term
p6749
(I1
I90980
tp6750
sVarriv
p6751
(I1
I131157
tp6752
sVcd
p6753
(I1
I131292
tp6754
sVwalt
p6755
(I1
I102467
tp6756
sVprivately-own
p6757
(I1
I134360
tp6758
sVcommenc
p6759
(I1
I80478
tp6760
sV11,000
p6761
(I1
I126450
tp6762
sVrespect
p6763
(I8
I100959
tp6764
sV88,974,000
p6765
(I1
I96036
tp6766
sVwithdrawn
p6767
(I1
I80044
tp6768
sVct
p6769
(I52
I8127
tp6770
sV8.1
p6771
(I1
I128005
tp6772
sVquit
p6773
(I1
I109890
tp6774
sVag
p6775
(I1
I136598
tp6776
sV8.8
p6777
(I2
I101612
tp6778
sVguin
p6779
(I1
I140493
tp6780
sV6.33
p6781
(I1
I124929
tp6782
sVcent
p6783
(I6
I105848
tp6784
sVcompon
p6785
(I2
I104340
tp6786
sVyao
p6787
(I1
I138508
tp6788
sVoutflow
p6789
(I1
I135324
tp6790
sV4,638,000
p6791
(I1
I92930
tp6792
sVelectr
p6793
(I4
I102990
tp6794
sVimmedi
p6795
(I6
I105911
tp6796
sVdure
p6797
(I10
I114684
tp6798
sV>
(I118
I3978
tp6799
sVquarter-end
p6800
(I1
I130157
tp6801
sVnickel
p6802
(I1
I136816
tp6803
sVtreasur
p6804
(I1
I110031
tp6805
sV1200
p6806
(I1
I131592
tp6807
sVbulk
p6808
(I3
I119111
tp6809
sVdoneg
p6810
(I1
I100024
tp6811
sVnaphtha
p6812
(I1
I117052
tp6813
sVcbl
p6814
(I1
I142141
tp6815
sVbull
p6816
(I1
I108187
tp6817
sVgross
p6818
(I1
I136152
tp6819
sVpig
p6820
(I1
I133326
tp6821
sVoverwhelmingli
p6822
(I1
I138008
tp6823
sVspain
p6824
(I3
I94122
tp6825
sVstatist
p6826
(I3
I119716
tp6827
sVdebtor
p6828
(I1
I134752
tp6829
sVtherefor
p6830
(I2
I134723
tp6831
sVsuperannu
p6832
(I1
I83622
tp6833
sV58.2
p6834
(I1
I138168
tp6835
sVas
p6836
(I48
I24924
tp6837
sVon-market
p6838
(I1
I141672
tp6839
sVwill
p6840
(I57
I14043
tp6841
sV370.7
p6842
(I1
I92106
tp6843
sVounc
p6844
(I1
I122026
tp6845
sVrochest
p6846
(I1
I137531
tp6847
sV43
p6848
(I2
I135069
tp6849
sVhigh-rank
p6850
(I1
I136012
tp6851
sV62.4
p6852
(I1
I105063
tp6853
sV26,500
p6854
(I1
I140294
tp6855
sVpurchas
p6856
(I12
I74279
tp6857
sVengag
p6858
(I2
I39265
tp6859
sVziyang
p6860
(I1
I133101
tp6861
sVoversea
p6862
(I4
I116426
tp6863
sVsite
p6864
(I1
I137351
tp6865
sVvs
p6866
(I51
I7565
tp6867
sVsubstanti
p6868
(I3
I117556
tp6869
sV171,600
p6870
(I1
I133346
tp6871
sVincom
p6872
(I3
I104846
tp6873
sVrevis
p6874
(I7
I84063
tp6875
sVavg
p6876
(I13
I96350
tp6877
sV4.50
p6878
(I1
I82401
tp6879
sVvancouv
p6880
(I1
I142430
tp6881
sVscienc
p6882
(I1
I113566
tp6883
sVlankan
p6884
(I1
I110746
tp6885
sVwelcom
p6886
(I1
I128900
tp6887
sVjapanes
p6888
(I6
I63164
tp6889
sV)
(I24
I46296
tp6890
sVparti
p6891
(I5
I57181
tp6892
sVbegan
p6893
(I4
I113944
tp6894
sVsatisfi
p6895
(I1
I135972
tp6896
sVcross
p6897
(I1
I126693
tp6898
sVmember
p6899
(I4
I48038
tp6900
sV3,060,407
p6901
(I1
I134557
tp6902
sVnorthwest
p6903
(I2
I88878
tp6904
sVlargest
p6905
(I5
I127172
tp6906
sVinch
p6907
(I1
I112975
tp6908
sVoutbreak
p6909
(I1
I111638
tp6910
sV12,131,000
p6911
(I1
I45219
tp6912
sVprobabl
p6913
(I5
I55982
tp6914
sV15-30
p6915
(I1
I88704
tp6916
sVcompetit
p6917
(I7
I59775
tp6918
sVtighten
p6919
(I1
I133051
tp6920
sVcolumbia
p6921
(I1
I92217
tp6922
sVraymond
p6923
(I1
I86885
tp6924
sVcubic
p6925
(I1
I127574
tp6926
sVexpans
p6927
(I1
I134742
tp6928
sVeffect
p6929
(I15
I82891
tp6930
sVcoffe
p6931
(I3
I12174
tp6932
sV4.6
p6933
(I2
I115183
tp6934
sVexpand
p6935
(I5
I70327
tp6936
sVaudit
p6937
(I1
I117546
tp6938
sVoff
p6939
(I5
I66734
tp6940
sVcenter
p6941
(I3
I124803
tp6942
sVridgeway
p6943
(I1
I121876
tp6944
sVi
(I2
I91091
tp6945
sVlaboratori
p6946
(I1
I141372
tp6947
sVdiversifi
p6948
(I1
I123320
tp6949
sVindonesia
p6950
(I1
I110222
tp6951
sVtwo-for-on
p6952
(I2
I96261
tp6953
sVcontroversi
p6954
(I1
I131768
tp6955
sVthought
p6956
(I1
I108776
tp6957
sV7.75
p6958
(I1
I129028
tp6959
sVbro/fri
p6960
(I1
I139569
tp6961
sV350
p6962
(I4
I84379
tp6963
sV1.22
p6964
(I2
I27799
tp6965
sV1.21
p6966
(I1
I96300
tp6967
sVaudio
p6968
(I1
I124445
tp6969
sVsoviet
p6970
(I1
I49587
tp6971
sV43.75
p6972
(I1
I141762
tp6973
sV1.25
p6974
(I3
I67222
tp6975
sVlatest
p6976
(I2
I115549
tp6977
sVpakistani
p6978
(I1
I141012
tp6979
sV237.2
p6980
(I1
I132377
tp6981
sVless
p6982
(I4
I87906
tp6983
sVwagner
p6984
(I1
I136935
tp6985
sV411,000
p6986
(I1
I124629
tp6987
sVmultibank
p6988
(I1
I124425
tp6989
sVakron
p6990
(I1
I103236
tp6991
sVinterim
p6992
(I1
I101659
tp6993
sVvirtual
p6994
(I2
I122722
tp6995
sVlow-pow
p6996
(I1
I113506
tp6997
sVpaul
p6998
(I1
I138815
tp6999
sVbrokerag
p7000
(I2
I58540
tp7001
sVtcb
p7002
(I1
I134410
tp7003
sV4.60
p7004
(I1
I141582
tp7005
sVpatricio
p7006
(I1
I120409
tp7007
sV249.9
p7008
(I1
I141622
tp7009
sVprovision
p7010
(I1
I119869
tp7011
sVbell
p7012
(I1
I136786
tp7013
sVsmith
p7014
(I1
I130000
tp7015
sVlake
p7016
(I1
I127925
tp7017
sV26.3
p7018
(I1
I137571
tp7019
sVadd
p7020
(I3
I77459
tp7021
sVother
p7022
(I22
I76597
tp7023
sVgeelong
p7024
(I1
I140214
tp7025
sVoilse
p7026
(I1
I141072
tp7027
sV4,186,000
p7028
(I1
I123564
tp7029
sVwarrant
p7030
(I2
I74404
tp7031
sVenact
p7032
(I1
I95258
tp7033
sVgmt
p7034
(I1
I46682
tp7035
sVrationalis
p7036
(I1
I133001
tp7037
sVroyalti
p7038
(I2
I113161
tp7039
sVrememb
p7040
(I1
I142071
tp7041
sVprefabr
p7042
(I1
I134380
tp7043
sVchancellor
p7044
(I1
I126796
tp7045
sV14.7
p7046
(I1
I141092
tp7047
sVcattle/calf
p7048
(I1
I133277
tp7049
sVhaul
p7050
(I1
I123369
tp7051
sVrealiz
p7052
(I2
I101445
tp7053
sVfive
p7054
(I15
I106922
tp7055
sV265
p7056
(I2
I72305
tp7057
sV1,541,000
p7058
(I1
I100939
tp7059
sVresumpt
p7060
(I1
I28078
tp7061
sV14.0
p7062
(I1
I141112
tp7063
sVloss
p7064
(I28
I38783
tp7065
sVlike
p7066
(I10
I78431
tp7067
sVlost
p7068
(I4
I78997
tp7069
sV88.9
p7070
(I1
I101774
tp7071
sVhbo/cannon
p7072
(I1
I142350
tp7073
sVcorpor
p7074
(I5
I109352
tp7075
sVtrans-info
p7076
(I1
I139310
tp7077
sV1,048,543
p7078
(I1
I116186
tp7079
sVconran
p7080
(I1
I109668
tp7081
sVlawson
p7082
(I1
I126835
tp7083
sVnecessari
p7084
(I3
I119581
tp7085
sVlose
p7086
(I1
I135952
tp7087
sVdivest
p7088
(I1
I112210
tp7089
sVsoft
p7090
(I2
I90107
tp7091
sVpage
p7092
(I1
I41857
tp7093
sVpersist
p7094
(I1
I129732
tp7095
sVitalian
p7096
(I1
I142011
tp7097
sVconven
p7098
(I1
I48220
tp7099
sVexceed
p7100
(I1
I138894
tp7101
sVrevers
p7102
(I1
I116285
tp7103
sVincent
p7104
(I1
I113190
tp7105
sVhabitat
p7106
(I1
I109880
tp7107
sVcaptur
p7108
(I1
I52674
tp7109
sV9,396,000
p7110
(I1
I115908
tp7111
sVscottish
p7112
(I2
I113248
tp7113
sVyear'
p7114
(I1
I141102
tp7115
sV115
p7116
(I1
I131352
tp7117
sVbatteri
p7118
(I1
I82018
tp7119
sVhondura
p7120
(I1
I131502
tp7121
sVgrowth
p7122
(I8
I62017
tp7123
sVexport
p7124
(I15
I16607
tp7125
sV110
p7126
(I2
I121554
tp7127
sVguarante
p7128
(I1
I75457
tp7129
sVpeter
p7130
(I1
I129980
tp7131
sVdraw
p7132
(I1
I135812
tp7133
sV118
p7134
(I1
I137689
tp7135
sVtransport
p7136
(I8
I98846
tp7137
sV2.14
p7138
(I1
I132779
tp7139
sVest
p7140
(I1
I131612
tp7141
sVcompetitor
p7142
(I2
I79735
tp7143
sVfeder
p7144
(I10
I37711
tp7145
sVlead
p7146
(I3
I106048
tp7147
sVavoid
p7148
(I1
I122830
tp7149
sVannex
p7150
(I1
I126989
tp7151
sVbundesbank
p7152
(I2
I118946
tp7153
sVslide
p7154
(I1
I120147
tp7155
sVleas
p7156
(I1
I131710
tp7157
sVestim
p7158
(I13
I76219
tp7159
sVleav
p7160
(I6
I110378
tp7161
sVsettl
p7162
(I2
I98184
tp7163
sVkokan
p7164
(I1
I133011
tp7165
sV?
(I1
I138865
tp7166
sVmode
p7167
(I1
I140086
tp7168
sVpr
p7169
(I1
I111279
tp7170
sVencourag
p7171
(I2
I138776
tp7172
sVdci
p7173
(I1
I100509
tp7174
sVusag
p7175
(I1
I123231
tp7176
sV27.1
p7177
(I1
I137959
tp7178
sV27.0
p7179
(I1
I137919
tp7180
sValthough
p7181
(I3
I113200
tp7182
sVoffset
p7183
(I7
I38069
tp7184
sV27.9
p7185
(I1
I100929
tp7186
sVsohio
p7187
(I1
I132101
tp7188
sVmonetari
p7189
(I3
I119325
tp7190
sVafter
p7191
(I18
I80291
tp7192
sVstage
p7193
(I2
I91194
tp7194
sVpayout
p7195
(I4
I80715
tp7196
sVabout
p7197
(I28
I66349
tp7198
sVquarter
p7199
(I11
I36908
tp7200
sVactual
p7201
(I2
I99388
tp7202
sV25.7
p7203
(I1
I127426
tp7204
sV25.6
p7205
(I1
I132545
tp7206
sV25.9
p7207
(I1
I100859
tp7208
sVwithdrew
p7209
(I1
I103128
tp7210
sVaziz
p7211
(I1
I141002
tp7212
sVcpi
p7213
(I1
I136232
tp7214
sV630,000
p7215
(I1
I140374
tp7216
sVstamp
p7217
(I1
I142101
tp7218
sVwholly-own
p7219
(I1
I66204
tp7220
sVprudenti
p7221
(I1
I107598
tp7222
sVupward
p7223
(I1
I127662
tp7224
sVgazett
p7225
(I1
I95139
tp7226
sV9,300,000
p7227
(I1
I92056
tp7228
sVauster
p7229
(I1
I120332
tp7230
sVcarolyn
p7231
(I1
I141852
tp7232
sVowe
p7233
(I2
I37943
tp7234
sVtsia
p7235
(I1
I138478
tp7236
sV631.6
p7237
(I1
I137939
tp7238
sVwashington
p7239
(I2
I135384
tp7240
sVautomat
p7241
(I1
I118763
tp7242
sVassess
p7243
(I1
I126440
tp7244
sV5.24
p7245
(I1
I42885
tp7246
sVassest
p7247
(I1
I116797
tp7248
sV8/10
p7249
(I1
I112673
tp7250
sVhwa
p7251
(I1
I138548
tp7252
sVliberalis
p7253
(I2
I95937
tp7254
sVplantat
p7255
(I1
I110672
tp7256
sVbelgium/luxembourg
p7257
(I1
I94474
tp7258
sVempty-hand
p7259
(I1
I135912
tp7260
sVmerg
p7261
(I2
I112027
tp7262
sV1986
p7263
(I42
I43380
tp7264
sV2.52
p7265
(I1
I81599
tp7266
sV1984
p7267
(I1
I132218
tp7268
sV1985
p7269
(I19
I99138
tp7270
sV1982
p7271
(I1
I138963
tp7272
sV1983
p7273
(I2
I132151
tp7274
sV1980
p7275
(I4
I103394
tp7276
sV1981
p7277
(I1
I119800
tp7278
sVtexaco
p7279
(I1
I132111
tp7280
sVtransfer
p7281
(I2
I117228
tp7282
sV1988
p7283
(I1
I105663
tp7284
sV1989
p7285
(I1
I122036
tp7286
sV9.8
p7287
(I1
I136380
tp7288
sVlisbon
p7289
(I1
I130749
tp7290
sV9.4
p7291
(I1
I133462
tp7292
sVstrike-hit
p7293
(I1
I97975
tp7294
sV9.6
p7295
(I1
I127965
tp7296
sV9.7
p7297
(I1
I96104
tp7298
sVpretax
p7299
(I5
I96514
tp7300
sVdeliveri
p7301
(I5
I77497
tp7302
sVreduc
p7303
(I10
I120514
tp7304
sVabastecimento
p7305
(I1
I130573
tp7306
sVbuy
p7307
(I13
I74423
tp7308
sVnorth
p7309
(I4
I105803
tp7310
sVn-1
p7311
(I1
I132759
tp7312
sVhr
p7313
(I1
I131602
tp7314
sVbrand
p7315
(I1
I140623
tp7316
sVadvers
p7317
(I1
I132729
tp7318
sVead
p7319
(I1
I124455
tp7320
sVbut
p7321
(I37
I63978
tp7322
sV567
p7323
(I1
I112890
tp7324
sV8.24
p7325
(I1
I140902
tp7326
sVhi
p7327
(I7
I105370
tp7328
sVgain
p7329
(I13
I32253
tp7330
sVlarger
p7331
(I1
I127132
tp7332
sVeas
p7333
(I1
I119353
tp7334
sVha
p7335
(I54
I30527
tp7336
sV79,000
p7337
(I1
I114321
tp7338
sVhe
p7339
(I24
I90392
tp7340
sVmade
p7341
(I11
I82165
tp7342
sVdisplac
p7343
(I1
I138418
tp7344
sVwhether
p7345
(I4
I65899
tp7346
sVwish
p7347
(I1
I141052
tp7348
sVj
(I1
I139768
tp7349
sV86.6
p7350
(I1
I92940
tp7351
sV149.4
p7352
(I1
I89720
tp7353
sVrecord
p7354
(I27
I35175
tp7355
sVbelow
p7356
(I6
I54657
tp7357
sV725
p7358
(I1
I111289
tp7359
sVlimit
p7360
(I7
I91009
tp7361
sV12-member
p7362
(I1
I93533
tp7363
sVfetch
p7364
(I1
I137035
tp7365
sV200,000
p7366
(I1
I133886
tp7367
sVproblem
p7368
(I3
I91232
tp7369
sVwalter
p7370
(I1
I80552
tp7371
sVblock
p7372
(I3
I122312
tp7373
sVevalu
p7374
(I1
I132613
tp7375
sVyear-end
p7376
(I1
I124257
tp7377
sVsecaucu
p7378
(I1
I103158
tp7379
sV9,313,000
p7380
(I1
I81619
tp7381
sV973,400
p7382
(I1
I133257
tp7383
sVcircul
p7384
(I2
I62597
tp7385
sVour
p7386
(I4
I127820
tp7387
sVinc
p7388
(I55
I10
tp7389
sVautomot
p7390
(I1
I135059
tp7391
sVmutual
p7392
(I3
I106803
tp7393
sV2,245,000
p7394
(I1
I115868
tp7395
sV48
p7396
(I2
I124168
tp7397
sV49
p7398
(I2
I135117
tp7399
sV46
p7400
(I2
I75347
tp7401
sV47
p7402
(I1
I123604
tp7403
sV44
p7404
(I1
I133433
tp7405
sV45
p7406
(I6
I118019
tp7407
sV42
p7408
(I5
I76543
tp7409
sVdetail
p7410
(I6
I122360
tp7411
sV40
p7412
(I4
I54612
tp7413
sV41
p7414
(I1
I135107
tp7415
sVbook
p7416
(I1
I96735
tp7417
sV84
p7418
(I1
I89875
tp7419
sVbranch
p7420
(I3
I124267
tp7421
sVvarieti
p7422
(I2
I109130
tp7423
sV11.1
p7424
(I3
I124397
tp7425
sVrepeat
p7426
(I3
I134006
tp7427
sVmonday
p7428
(I3
I98203
tp7429
sVbaker/hugh
p7430
(I1
I123702
tp7431
sVjersey-bas
p7432
(I1
I71453
tp7433
sVjune
p7434
(I10
I88733
tp7435
sVstay
p7436
(I1
I125401
tp7437
sVstaf
p7438
(I1
I142270
tp7439
sVapparel
p7440
(I1
I136450
tp7441
sV29.8
p7442
(I1
I115421
tp7443
sV4.20
p7444
(I1
I133512
tp7445
sV29.4
p7446
(I1
I132565
tp7447
sV29.6
p7448
(I1
I42925
tp7449
sVtultex
p7450
(I1
I126576
tp7451
sVdecemb
p7452
(I9
I89622
tp7453
sVappoint
p7454
(I1
I117853
tp7455
sV9,220,000
p7456
(I1
I115985
tp7457
sV0.50
p7458
(I1
I133946
tp7459
sVcoordin
p7460
(I1
I140056
tp7461
sVbaker
p7462
(I2
I111961
tp7463
sVrule
p7464
(I7
I87834
tp7465
sVportion
p7466
(I1
I135962
tp7467
sVemerg
p7468
(I1
I140982
tp7469
sVrichco
p7470
(I1
I114879
tp7471
sVrural
p7472
(I1
I131040
tp7473
sV294.0
p7474
(I1
I92443
tp7475
sVbcw
p7476
(I1
I121456
tp7477
sVdefend
p7478
(I1
I130867
tp7479
s.