(dp1
Vnurseri
p2
(I2
I23881
tp3
sVfour
p4
(I4
I17560
tp5
sVsanford
p6
(I1
I32260
tp7
sVaug
p8
(I1
I9733
tp9
sV1.19
p10
(I1
I31911
tp11
sV7.60
p12
(I1
I25814
tp13
sV340
p14
(I1
I8050
tp15
sVunder
p16
(I5
I9069
tp17
sVworth
p18
(I1
I28091
tp19
sVrise
p20
(I4
I14892
tp21
sVvoic
p22
(I1
I22503
tp23
sVgovern
p24
(I2
I19013
tp25
sVdirect
p26
(I1
I29984
tp27
sVgasoline-produc
p28
(I1
I25132
tp29
sVsecond
p30
(I3
I18184
tp31
sVstreet
p32
(I1
I33000
tp33
sVaim
p34
(I1
I30651
tp35
sVamus
p36
(I1
I15545
tp37
sVwhile
p38
(I4
I16472
tp39
sVasia
p40
(I1
I26461
tp41
sVspokesman
p42
(I2
I27188
tp43
sVsupplier
p44
(I1
I18075
tp45
sVnew
p46
(I8
I8728
tp47
sVnet
p48
(I13
I16903
tp49
sVever
p50
(I1
I25774
tp51
sVtold
p52
(I2
I18886
tp53
sVnever
p54
(I1
I25907
tp55
sVdrew
p56
(I1
I32510
tp57
sVmet
p58
(I1
I16098
tp59
sV109
p60
(I1
I26766
tp61
sV100
p62
(I1
I28737
tp63
sV0.39
p64
(I1
I9743
tp65
sVgld
p66
(I2
I22858
tp67
sVdri
p68
(I1
I3022
tp69
sVcredit
p70
(I3
I27821
tp71
sVdanzar
p72
(I1
I28980
tp73
sVpermit
p74
(I1
I27501
tp75
sVtwo-third
p76
(I1
I31430
tp77
sVcounti
p78
(I1
I29204
tp79
sV71-1/8
p80
(I1
I32960
tp81
sVbro
p82
(I1
I22056
tp83
sVtotal
p84
(I9
I4634
tp85
sVunit
p86
(I10
I22924
tp87
sVwould
p88
(I8
I7386
tp89
sV345
p90
(I1
I33500
tp91
sVasset
p92
(I4
I23312
tp93
sVwarn
p94
(I1
I18798
tp95
sVholm
p96
(I1
I32540
tp97
sVhold
p98
(I6
I13227
tp99
sVmust
p100
(I1
I25386
tp101
sVword
p102
(I1
I28061
tp103
sVrestor
p104
(I1
I2056
tp105
sV33.96
p106
(I1
I21089
tp107
sVmr
p108
(I1
I19107
tp109
sV1,425,000
p110
(I1
I24436
tp111
sV2.84
p112
(I1
I21410
tp113
sVgive
p114
(I1
I28260
tp115
sV1-1/8
p116
(I1
I32740
tp117
sVindic
p118
(I2
I22706
tp119
sVattract
p120
(I1
I33290
tp121
sVend
p122
(I11
I3653
tp123
sVquot
p124
(I1
I31085
tp125
sVhow
p126
(I3
I6497
tp127
sVnegoti
p128
(I1
I29780
tp129
sVpolit
p130
(I1
I21978
tp131
sV6-1/4
p132
(I1
I32940
tp133
sVchines
p134
(I1
I26836
tp135
sVafter
p136
(I3
I10426
tp137
sVbefor
p138
(I2
I24570
tp139
sVwrong
p140
(I1
I31144
tp141
sVthird
p142
(I1
I29945
tp143
sVexclud
p144
(I1
I26956
tp145
sVmaintain
p146
(I3
I28014
tp147
sVenter
p148
(I1
I18973
tp149
sVexclus
p150
(I1
I14237
tp151
sVoper
p152
(I9
I14468
tp153
sVover
p154
(I6
I7623
tp155
sVpayabl
p156
(I2
I28787
tp157
sVbecaus
p158
(I1
I33300
tp159
sV12.3
p160
(I1
I21420
tp161
sVveri
p162
(I2
I31154
tp163
sV6.4
p164
(I1
I7043
tp165
sV6.2
p166
(I1
I7189
tp167
sVjapan
p168
(I2
I18600
tp169
sV20.58
p170
(I1
I21167
tp171
sV10.1
p172
(I1
I24753
tp173
sV10.2
p174
(I1
I21515
tp175
sV9,310,000
p176
(I2
I24153
tp177
sVfit
p178
(I2
I7467
tp179
sV10.6
p180
(I1
I20609
tp181
sV,
(I33
I722
tp182
sV16.6
p183
(I1
I24456
tp184
sVoffic
p185
(I1
I23797
tp186
sV16.3
p187
(I1
I21440
tp188
sV400
p189
(I1
I28777
tp190
sVthen
p191
(I1
I19538
tp192
sVthem
p193
(I1
I28200
tp194
sVband
p195
(I1
I32160
tp196
sVthey
p197
(I5
I22429
tp198
sVbank
p199
(I6
I14791
tp200
sV1.06
p201
(I1
I9989
tp202
sVeach
p203
(I1
I16274
tp204
sVwent
p205
(I1
I9316
tp206
sVcomplet
p207
(I6
I12014
tp208
sVmean
p209
(I3
I3060
tp210
sVhmsb
p211
(I1
I29284
tp212
sVpillsburi
p213
(I1
I30501
tp214
sVcommiss
p215
(I3
I10398
tp216
sVrd
p217
(I1
I31331
tp218
sVbarrier
p219
(I1
I18788
tp220
sVu.s.
p221
(I6
I9553
tp222
sVsituat
p223
(I1
I32600
tp224
sVstandard
p225
(I3
I29634
tp226
sVshipper
p227
(I1
I7486
tp228
sVunabl
p229
(I1
I16025
tp230
sVturben
p231
(I1
I32350
tp232
sVnigel
p233
(I1
I27149
tp234
sV201,129
p235
(I1
I29463
tp236
sVindepend
p237
(I1
I31291
tp238
sValreadi
p239
(I4
I16603
tp240
sVchevron
p241
(I1
I32760
tp242
sVagre
p243
(I1
I29741
tp244
sV59,000
p245
(I1
I23516
tp246
sVoldr
p247
(I1
I30829
tp248
sVsometim
p249
(I2
I31843
tp250
sVmaster
p251
(I1
I30591
tp252
sVint'l
p253
(I1
I30819
tp254
sVsomewhat
p255
(I1
I17696
tp256
sVpast
p257
(I1
I31381
tp258
sVtarget
p259
(I1
I32440
tp260
sVburger
p261
(I1
I30531
tp262
sVprovid
p263
(I1
I31981
tp264
sVhike
p265
(I3
I29578
tp266
sVshower
p267
(I1
I48
tp268
sViron
p269
(I1
I26298
tp270
sVprovis
p271
(I1
I28131
tp272
sVminneapolis-st.
p273
(I1
I23807
tp274
sVmodern
p275
(I1
I25289
tp276
sV30.6
p277
(I1
I15168
tp278
sVseen
p279
(I2
I26717
tp280
sVseem
p281
(I1
I5319
tp282
sVseek
p283
(I1
I19733
tp284
sVstrength
p285
(I2
I25985
tp286
sV6,068,254
p287
(I1
I26946
tp288
sV-
(I2
I18619
tp289
sVpnp
p290
(I1
I24897
tp291
sVinsur
p292
(I2
I27540
tp293
sVshall
p294
(I1
I19379
tp295
sVbruce
p296
(I1
I32360
tp297
sVobject
p298
(I1
I22513
tp299
sVgyllenhammar
p300
(I1
I25754
tp301
sVregular
p302
(I1
I30054
tp303
sVletter
p304
(I3
I26147
tp305
sVdrought
p306
(I1
I1062
tp307
sVzealand
p308
(I1
I14965
tp309
sVflow
p310
(I2
I28141
tp311
sVdoe
p312
(I3
I29550
tp313
sVdeclar
p314
(I1
I30084
tp315
sVafter-tax
p316
(I2
I29926
tp317
sVdot
p318
(I1
I14040
tp319
sV7.2
p320
(I1
I31271
tp321
sV7.1
p322
(I1
I23768
tp323
sVcorp
p324
(I10
I17047
tp325
sV7.4
p326
(I2
I31440
tp327
sV2,465,996
p328
(I1
I24220
tp329
sVinvolv
p330
(I3
I13705
tp331
sVdespit
p332
(I1
I25824
tp333
sVacquir
p334
(I5
I12571
tp335
sVexplain
p336
(I1
I31518
tp337
sVminnesota
p338
(I3
I23254
tp339
sVsugar
p340
(I1
I21545
tp341
sVhere
p342
(I1
I27119
tp343
sVbusi
p344
(I2
I23031
tp345
sVdo
p346
(I2
I19686
tp347
sVreport
p348
(I4
I19812
tp349
sVvolv.st
p350
(I1
I25657
tp351
sVearn
p352
(I3
I17298
tp353
sVrothschild
p354
(I1
I33470
tp355
sVpatch
p356
(I1
I32220
tp357
sVtwice
p358
(I1
I25406
tp359
sVdiscu
p360
(I1
I24653
tp361
sVrival
p362
(I1
I19772
tp363
sVfair
p364
(I1
I31173
tp365
sVliquor
p366
(I1
I9792
tp367
sVresult
p368
(I5
I24496
tp369
sVrespons
p370
(I1
I32710
tp371
sVfail
p372
(I1
I28071
tp373
sVbest
p374
(I1
I25764
tp375
sVsubject
p376
(I2
I27257
tp377
sVsaid
p378
(I29
I2086
tp379
sVfigur
p380
(I2
I5876
tp381
sVoutstand
p382
(I1
I13666
tp383
sV92
p384
(I1
I26786
tp385
sVwe
p386
(I2
I19321
tp387
sVwa
p388
(I10
I5662
tp389
sVoptimist
p390
(I1
I33130
tp391
sV42.9
p392
(I1
I20722
tp393
sV857,006
p394
(I1
I20702
tp395
sV17.18
p396
(I1
I15255
tp397
sVnews
p398
(I1
I31045
tp399
sVdebt
p400
(I2
I29039
tp401
sVagainst
p402
(I6
I4984
tp403
sVfnf
p404
(I1
I29126
tp405
sV1,750
p406
(I1
I8438
tp407
sVcountri
p408
(I1
I18837
tp409
sV150,746
p410
(I1
I29473
tp411
sVand
p412
(I30
I1164
tp413
sVyear-end
p414
(I1
I25965
tp415
sVhad
p416
(I9
I19213
tp417
sVtonn
p418
(I3
I8645
tp419
sVunion
p420
(I1
I29702
tp421
sVthree
p422
(I2
I23417
tp423
sVbeen
p424
(I4
I2011
tp425
sV.
(I36
I2657
tp426
sVspecul
p427
(I2
I31183
tp428
sVrevenu
p429
(I2
I17605
tp430
sVmuch
p431
(I2
I6525
tp432
sVinterest
p433
(I3
I19175
tp434
sVregul
p435
(I1
I27733
tp436
sVcawl.l
p437
(I1
I18963
tp438
sV168
p439
(I1
I23739
tp440
sVmcv
p441
(I1
I16005
tp442
sVsave
p443
(I1
I29274
tp444
sVaffirm
p445
(I1
I32230
tp446
sVservic
p447
(I2
I19481
tp448
sVproperti
p449
(I2
I30282
tp450
sVgasolin
p451
(I1
I25220
tp452
sVcommerci
p453
(I1
I28101
tp454
sVgnb
p455
(I2
I23235
tp456
sVpublicli
p457
(I2
I15712
tp458
sVaid
p459
(I1
I27433
tp460
sVgould
p461
(I2
I22839
tp462
sVseven
p463
(I1
I24673
tp464
sVis
p465
(I16
I5923
tp466
sVtabl
p467
(I1
I28310
tp468
sVit
p469
(I25
I2380
tp470
sVunoc
p471
(I1
I32850
tp472
sVin
p473
(I24
I471
tp474
sVsever
p475
(I1
I32610
tp476
sVif
p477
(I4
I13789
tp478
sVaug/sept
p479
(I1
I9178
tp480
sV13.16
p481
(I1
I15356
tp482
sVjame
p483
(I1
I30351
tp484
sVreceiv
p485
(I2
I29000
tp486
sVmake
p487
(I3
I4302
tp488
sVdean
p489
(I1
I33350
tp490
sVsplit
p491
(I3
I18232
tp492
sVeuropean
p493
(I2
I22260
tp494
sVnil
p495
(I1
I20211
tp496
sVhand
p497
(I1
I7327
tp498
sVagsi
p499
(I1
I28555
tp500
sVrais
p501
(I4
I15639
tp502
sVownership
p503
(I3
I29848
tp504
sVbutter
p505
(I1
I9228
tp506
sVmaccia
p507
(I1
I22076
tp508
sVhigh-octan
p509
(I1
I25249
tp510
sVocean
p511
(I1
I26471
tp512
sVshortli
p513
(I1
I19350
tp514
sVthi
p515
(I8
I3366
tp516
sVthe
p517
(I32
I122
tp518
sVunchang
p519
(I1
I21187
tp520
sVidentifi
p521
(I1
I31105
tp522
sVjust
p523
(I1
I33330
tp524
sVapril/may
p525
(I1
I9306
tp526
sVyet
p527
(I1
I19203
tp528
sVprevious
p529
(I2
I18405
tp530
sV4,400
p531
(I1
I9453
tp532
sVroyal
p533
(I1
I31311
tp534
sVamoco
p535
(I1
I32910
tp536
sVprecambrian
p537
(I1
I30142
tp538
sV18,750,000
p539
(I1
I29068
tp540
sVboard
p541
(I6
I15804
tp542
sV20-23
p543
(I1
I30641
tp544
sVgave
p545
(I1
I26004
tp546
sVleagu
p547
(I1
I28300
tp548
sVligig
p549
(I1
I31202
tp550
sVrumor
p551
(I1
I32550
tp552
sVmeasur
p553
(I2
I22523
tp554
sVexxon
p555
(I1
I32720
tp556
sV55
p557
(I1
I31065
tp558
sV57
p559
(I1
I24975
tp560
sV56
p561
(I2
I20673
tp562
sV51
p563
(I1
I23446
tp564
sV50
p565
(I2
I31617
tp566
sV52
p567
(I1
I24416
tp568
sVconfid
p569
(I1
I32250
tp570
sVright
p571
(I1
I13117
tp572
sVold
p573
(I2
I6544
tp574
sVdeal
p575
(I1
I23292
tp576
sVcrown
p577
(I1
I25804
tp578
sVpercentag
p579
(I1
I31548
tp580
sVintern
p581
(I2
I15620
tp582
sVici
p583
(I1
I31931
tp584
sVfor
p585
(I18
I1496
tp586
sVseaborn
p587
(I1
I26308
tp588
sVballadur
p589
(I1
I27071
tp590
sVcommunity-wid
p591
(I1
I27227
tp592
sVfob
p593
(I1
I9208
tp594
sVcondit
p595
(I2
I13834
tp596
sVconfer
p597
(I1
I31055
tp598
sVplc
p599
(I3
I18935
tp600
sVpost
p601
(I2
I17896
tp602
sVsuper
p603
(I1
I25269
tp604
sVslightli
p605
(I3
I14937
tp606
sVafternoon
p607
(I1
I32001
tp608
sVown
p609
(I4
I16648
tp610
sVcommit
p611
(I2
I27995
tp612
sVsept
p613
(I1
I9503
tp614
sVproduc
p615
(I1
I25416
tp616
sVahc
p617
(I1
I32650
tp618
sVtelephon
p619
(I1
I18222
tp620
sVpetroleum
p621
(I2
I30966
tp622
sVdown
p623
(I1
I26647
tp624
sVchimi
p625
(I2
I23098
tp626
sV39.9
p627
(I1
I29078
tp628
sVopportun
p629
(I1
I26033
tp630
sVmanageri
p631
(I1
I19930
tp632
sVeast
p633
(I1
I26451
tp634
sVsupport
p635
(I3
I22725
tp636
sVpayment
p637
(I1
I30431
tp638
sVavail
p639
(I3
I6582
tp640
sVfraction
p641
(I1
I16517
tp642
sVgin
p643
(I1
I29304
tp644
sVwar
p645
(I1
I32310
tp646
sVform
p647
(I2
I14732
tp648
sVoffer
p649
(I8
I8200
tp650
sVwireless
p651
(I1
I18925
tp652
sVcatalyst
p653
(I1
I25328
tp654
sVanalyst
p655
(I3
I27626
tp656
sVagain
p657
(I3
I5291
tp658
sVmth
p659
(I2
I24096
tp660
sV137.2
p661
(I1
I23486
tp662
sVunrel
p663
(I1
I23357
tp664
sVcovert
p665
(I1
I9616
tp666
sV46,000
p667
(I1
I25426
tp668
sVexist
p669
(I1
I31459
tp670
sVship
p671
(I1
I26481
tp672
sVmold
p673
(I1
I17972
tp674
sVno
p675
(I1
I33450
tp676
sV5,545,000
p677
(I1
I24406
tp678
sVstake
p679
(I1
I19743
tp680
sVwhen
p681
(I2
I19389
tp682
sVrole
p683
(I1
I19940
tp684
sVtest
p685
(I1
I19032
tp686
sVsaiud
p687
(I1
I30391
tp688
sVintend
p689
(I1
I30985
tp690
sVfell
p691
(I1
I21370
tp692
sVintent
p693
(I4
I26175
tp694
sVconsid
p695
(I3
I15967
tp696
sV'n
p697
(I1
I24849
tp698
sVbillion
p699
(I8
I15265
tp700
sVundisclos
p701
(I1
I30381
tp702
sVfsi
p703
(I1
I24230
tp704
sVtime
p705
(I5
I9336
tp706
sVrog
p707
(I1
I16713
tp708
sVmile
p709
(I1
I26608
tp710
sVper
p711
(I7
I8080
tp712
sVdecid
p713
(I1
I26250
tp714
sVcatalyt
p715
(I1
I25171
tp716
sVzone
p717
(I1
I712
tp718
sVintermedi
p719
(I1
I33190
tp720
sVretreat
p721
(I1
I33110
tp722
sVsourc
p723
(I1
I31469
tp724
sVminist
p725
(I2
I18658
tp726
sVlynch
p727
(I1
I30779
tp728
sVlevel
p729
(I2
I1751
tp730
sVdid
p731
(I1
I23282
tp732
sVindustrialis
p733
(I1
I27345
tp734
sVbrother
p735
(I1
I32280
tp736
sVdiv
p737
(I4
I28413
tp738
sVdip
p739
(I1
I27306
tp740
sVround
p741
(I2
I22820
tp742
sVbahia
p743
(I1
I0
tp744
sV871,000
p745
(I2
I24115
tp746
sVcost
p747
(I1
I14566
tp748
sV51,187,000
p749
(I1
I30232
tp750
sVport
p751
(I1
I8673
tp752
sV312.4
p753
(I1
I26531
tp754
sVcurrenc
p755
(I2
I9626
tp756
sVrepli
p757
(I1
I19311
tp758
sVcurrent
p759
(I7
I9897
tp760
sVappeal
p761
(I1
I21939
tp762
sVboost
p763
(I1
I33010
tp764
sVl.p.
p765
(I1
I30799
tp766
sVgener
p767
(I2
I14703
tp768
sVgenet
p769
(I1
I28526
tp770
sVfrench
p771
(I3
I22877
tp772
sVentertain
p773
(I2
I24773
tp774
sValong
p775
(I1
I27683
tp776
sVwait
p777
(I1
I31222
tp778
sVcanadian
p779
(I1
I21060
tp780
sVworldwid
p781
(I1
I14247
tp782
sV437
p783
(I1
I31951
tp784
sVelect
p785
(I1
I21683
tp786
sVprefer
p787
(I1
I16555
tp788
sVdennison
p789
(I1
I30301
tp790
sV108,000
p791
(I2
I23994
tp792
sV1st
p793
(I1
I16795
tp794
sVmobil
p795
(I1
I25045
tp796
sVmarket
p797
(I7
I13929
tp798
sVjan
p799
(I1
I23407
tp800
sVaustralian
p801
(I1
I32530
tp802
sVtoday
p803
(I4
I15922
tp804
sV``
p805
(I7
I17624
tp806
sV622,470
p807
(I1
I26896
tp808
sVcar
p809
(I1
I25917
tp810
sVprepar
p811
(I2
I22552
tp812
sVcan
p813
(I1
I33440
tp814
sV995
p815
(I1
I9713
tp816
sVuruguay
p817
(I1
I9673
tp818
sVpredict
p819
(I1
I26501
tp820
sVnastro
p821
(I1
I21998
tp822
sVagenc
p823
(I1
I21360
tp824
sVspc
p825
(I1
I29662
tp826
sVoccur
p827
(I2
I13853
tp828
sV580,000
p829
(I1
I24386
tp830
sVeconomi
p831
(I1
I27207
tp832
sVedouard
p833
(I1
I27061
tp834
sVfourth
p835
(I2
I19127
tp836
sVproduct
p837
(I9
I14586
tp838
sVhuge
p839
(I1
I32390
tp840
sVmay
p841
(I6
I9390
tp842
sVfed
p843
(I2
I27375
tp844
sVspot
p845
(I1
I7922
tp846
sV5.2
p847
(I1
I21400
tp848
sV4th
p849
(I5
I24250
tp850
sVsuch
p851
(I2
I27956
tp852
sVdata
p853
(I2
I28615
tp854
sV155,221
p855
(I1
I3923
tp856
sVpractic
p857
(I2
I6718
tp858
sVliquid
p859
(I1
I31301
tp860
sVsecur
p861
(I3
I27588
tp862
sVfrancais
p863
(I2
I23060
tp864
sVswitch
p865
(I1
I17982
tp866
sVtruck
p867
(I1
I25927
tp868
sVdeposit
p869
(I2
I14854
tp870
sVsc
p871
(I1
I31341
tp872
sVtalk
p873
(I2
I27100
tp874
sVl.f.
p875
(I1
I33460
tp876
sVshield
p877
(I1
I30152
tp878
sVbeaumont
p879
(I1
I25142
tp880
sVapprov
p881
(I4
I18260
tp882
sVbuyer
p883
(I1
I9753
tp884
sVstill
p885
(I1
I6092
tp886
sVforma
p887
(I1
I24476
tp888
sVgroup
p889
(I5
I23117
tp890
sVpolici
p891
(I1
I31765
tp892
sVfarmer
p893
(I1
I7337
tp894
sVmail
p895
(I1
I29994
tp896
sVmeridian
p897
(I1
I26108
tp898
sV3,282,478
p899
(I1
I26926
tp900
sVfinanci
p901
(I6
I19418
tp902
sViniti
p903
(I3
I22772
tp904
sVnation
p905
(I5
I15491
tp906
sVhalf
p907
(I2
I31411
tp908
sVnot
p909
(I13
I1877
tp910
sVnow
p911
(I3
I7496
tp912
sV26.3
p913
(I1
I15178
tp914
sVreluct
p915
(I1
I8190
tp916
sVterm
p917
(I5
I18085
tp918
sV24.8
p919
(I1
I30212
tp920
sVname
p921
(I4
I8683
tp922
sVdrop
p923
(I2
I25715
tp924
sV72-1/4
p925
(I1
I32980
tp926
sVjanuari
p927
(I2
I1145
tp928
sVquarter
p929
(I7
I17226
tp930
sVstockhold
p931
(I1
I29058
tp932
sVreplac
p933
(I1
I21771
tp934
sVcontinu
p935
(I5
I58
tp936
sVec
p937
(I2
I22184
tp938
sVsignificantli
p939
(I1
I17037
tp940
sVyear
p941
(I19
I3447
tp942
sVsuperior+
p943
(I1
I7564
tp944
sVdispos
p945
(I3
I24821
tp946
sVconting
p947
(I1
I30421
tp948
sVcanada
p949
(I1
I20977
tp950
sV3rd
p951
(I3
I23919
tp952
sVprofit
p953
(I9
I20355
tp954
sVunderwrit
p955
(I1
I30789
tp956
sV8,168,000
p957
(I1
I25005
tp958
sVcorrect
p959
(I1
I25035
tp960
sV5,896,000
p961
(I2
I24032
tp962
sVdnzr
p963
(I1
I28990
tp964
sVearlier
p965
(I4
I5455
tp966
sVmid-1989
p967
(I1
I25548
tp968
sVdomest
p969
(I1
I27217
tp970
sVcalifornia
p971
(I1
I29136
tp972
sVcarl
p973
(I1
I32490
tp974
sVore
p975
(I1
I26318
tp976
sVcare
p977
(I1
I31075
tp978
sVbritish
p979
(I3
I27004
tp980
sVplace
p981
(I2
I27792
tp982
sV10-13/16
p983
(I1
I32190
tp984
sVtechnolgi
p985
(I1
I14030
tp986
sVthink
p987
(I2
I31125
tp988
sVfirst
p989
(I7
I17154
tp990
sVorigin
p991
(I1
I24560
tp992
sVone
p993
(I6
I12653
tp994
sVacquisit
p995
(I4
I23630
tp996
sVsubmit
p997
(I1
I15995
tp998
sVoppos
p999
(I1
I19920
tp1000
sVarsen
p1001
(I1
I16137
tp1002
sVopen
p1003
(I2
I8954
tp1004
sVgiven
p1005
(I1
I31941
tp1006
sVcarson
p1007
(I1
I30906
tp1008
sVcumul
p1009
(I1
I4624
tp1010
sVrosario
p1011
(I1
I33480
tp1012
sVway
p1013
(I1
I33430
tp1014
sV140,000
p1015
(I1
I24693
tp1016
sVthat
p1017
(I11
I5329
tp1018
sVseason
p1019
(I3
I4732
tp1020
sV1,301,000
p1021
(I1
I24945
tp1022
sVmostli
p1023
(I1
I31755
tp1024
sVshelard
p1025
(I1
I23556
tp1026
sVthan
p1027
(I6
I17823
tp1028
sVoxi
p1029
(I1
I32890
tp1030
sVserv
p1031
(I2
I21920
tp1032
sV10
p1033
(I3
I26561
tp1034
sV13
p1035
(I5
I20619
tp1036
sV12
p1037
(I2
I23778
tp1038
sV15
p1039
(I3
I8162
tp1040
sV14
p1041
(I1
I24723
tp1042
sV17
p1043
(I1
I26657
tp1044
sV16
p1045
(I1
I30182
tp1046
sV19
p1047
(I3
I20453
tp1048
sV18
p1049
(I2
I31716
tp1050
sVspokeswoman
p1051
(I1
I16015
tp1052
sVwere
p1053
(I9
I3825
tp1054
sVposit
p1055
(I3
I27928
tp1056
sV12,544,866
p1057
(I1
I29363
tp1058
sVprospect
p1059
(I1
I1486
tp1060
sVsan
p1061
(I1
I29244
tp1062
sVpro
p1063
(I1
I24466
tp1064
sVani
p1065
(I3
I14080
tp1066
sVmateo
p1067
(I1
I29254
tp1068
sVsay
p1069
(I6
I16035
tp1070
sVdeliv
p1071
(I1
I5445
tp1072
sV195,202
p1073
(I1
I20692
tp1074
sV73-82
p1075
(I1
I30631
tp1076
sVnote
p1077
(I8
I20732
tp1078
sV5,686,000
p1079
(I1
I24995
tp1080
sVtake
p1081
(I1
I19567
tp1082
sVcaston
p1083
(I1
I26137
tp1084
sVmatchmak
p1085
(I1
I32670
tp1086
sV200
p1087
(I2
I26589
tp1088
sVbegin
p1089
(I2
I22610
tp1090
sVprinter
p1091
(I1
I14771
tp1092
sVnormal
p1093
(I1
I1731
tp1094
sVprice
p1095
(I6
I7942
tp1096
sVpaid
p1097
(I3
I29088
tp1098
sVhasti
p1099
(I1
I33100
tp1100
sVicahn
p1101
(I1
I32500
tp1102
sVabus
p1103
(I1
I27908
tp1104
sVupland
p1105
(I1
I29403
tp1106
sVallevi
p1107
(I1
I1052
tp1108
sVlater
p1109
(I1
I15912
tp1110
sVsale
p1111
(I10
I7053
tp1112
sVmeanwhil
p1113
(I1
I21177
tp1114
sVsenior
p1115
(I1
I22409
tp1116
sVsteadi
p1117
(I1
I28280
tp1118
sVslope
p1119
(I1
I33270
tp1120
sVshow
p1121
(I2
I29829
tp1122
sVprivately-held
p1123
(I1
I26230
tp1124
sVshoe
p1125
(I1
I23377
tp1126
sVlabel
p1127
(I1
I14722
tp1128
sVground
p1129
(I2
I22571
tp1130
sVonli
p1131
(I4
I8301
tp1132
sVratio
p1133
(I1
I31538
tp1134
sVtreasuri
p1135
(I2
I27169
tp1136
sVtransact
p1137
(I1
I27868
tp1138
sVestat
p1139
(I1
I27578
tp1140
sVoct/dec
p1141
(I1
I9513
tp1142
sVoffici
p1143
(I1
I31232
tp1144
sVvariou
p1145
(I1
I27743
tp1146
sVget
p1147
(I1
I30661
tp1148
sVrequir
p1149
(I1
I27975
tp1150
sVprime
p1151
(I1
I18648
tp1152
sVcie
p1153
(I1
I28487
tp1154
sVyield
p1155
(I1
I30621
tp1156
sVroger
p1157
(I1
I16703
tp1158
sVpima
p1159
(I1
I29453
tp1160
sVtelecommun
p1161
(I1
I18983
tp1162
sVwhere
p1163
(I1
I19622
tp1164
sVconcert
p1165
(I1
I27276
tp1166
sVreserv
p1167
(I5
I15104
tp1168
sVconcern
p1169
(I3
I29146
tp1170
sVreview
p1171
(I2
I29
tp1172
sVforecast
p1173
(I1
I32090
tp1174
sVbehind
p1175
(I1
I32380
tp1176
sVbureau
p1177
(I1
I29393
tp1178
sVimport
p1179
(I3
I21119
tp1180
sVacross
p1181
(I1
I28270
tp1182
sVaugust
p1183
(I1
I24589
tp1184
sVjr
p1185
(I1
I30371
tp1186
sVarroba
p1187
(I1
I8152
tp1188
sV10.5
p1189
(I2
I28458
tp1190
sVcome
p1191
(I2
I1683
tp1192
sV785
p1193
(I1
I9703
tp1194
sV9,237,296
p1195
(I1
I29413
tp1196
sVnearbi
p1197
(I1
I8281
tp1198
sVimprov
p1199
(I2
I1467
tp1200
sV284,945
p1201
(I1
I20491
tp1202
sVperiod
p1203
(I3
I3032
tp1204
sV50,000
p1205
(I1
I12756
tp1206
sV60
p1207
(I3
I4264
tp1208
sV65
p1209
(I2
I28497
tp1210
sVend-1984
p1211
(I1
I29373
tp1212
sVshortag
p1213
(I1
I32080
tp1214
sVtwo-year
p1215
(I1
I21733
tp1216
sVhoward
p1217
(I1
I21781
tp1218
sVwest
p1219
(I1
I33180
tp1220
sVcarey
p1221
(I1
I22106
tp1222
sVthousand
p1223
(I1
I7317
tp1224
sVchris-craft
p1225
(I1
I30034
tp1226
sV+bahia
p1227
(I1
I7554
tp1228
sV2,400
p1229
(I1
I9887
tp1230
sVqsv
p1231
(I1
I30720
tp1232
sVdiplomat
p1233
(I1
I22419
tp1234
sVimpati
p1235
(I1
I18590
tp1236
sVformer
p1237
(I1
I21693
tp1238
sVthose
p1239
(I1
I32430
tp1240
sVcase
p1241
(I1
I19042
tp1242
sV''
p1243
(I7
I17751
tp1244
sVmerril
p1245
(I1
I30769
tp1246
sVthese
p1247
(I1
I28170
tp1248
sVcash
p1249
(I4
I16229
tp1250
sVn't
p1251
(I1
I31015
tp1252
sVrefineri
p1253
(I1
I25075
tp1254
sVbancshar
p1255
(I1
I23566
tp1256
sVdestin
p1257
(I1
I9543
tp1258
sV13.6
p1259
(I1
I20599
tp1260
sVsedio
p1261
(I1
I12716
tp1262
sVdevelop
p1263
(I1
I26220
tp1264
sVauthor
p1265
(I1
I28767
tp1266
sVpay
p1267
(I6
I14405
tp1268
sVsame
p1269
(I4
I5191
tp1270
sV267.7
p1271
(I1
I26511
tp1272
sVspeech
p1273
(I1
I27616
tp1274
sVpak
p1275
(I1
I24859
tp1276
sVweek
p1277
(I3
I443
tp1278
sVoil
p1279
(I4
I20987
tp1280
sV58-7/8
p1281
(I1
I32790
tp1282
sVassist
p1283
(I1
I31991
tp1284
sVjune/juli
p1285
(I1
I8973
tp1286
sV2,375
p1287
(I1
I9867
tp1288
sVcosta
p1289
(I1
I29234
tp1290
sVappropri
p1291
(I2
I30887
tp1292
sVwithout
p1293
(I1
I25366
tp1294
sVwoodco
p1295
(I1
I14153
tp1296
sV135.7
p1297
(I1
I26776
tp1298
sVexecut
p1299
(I2
I21949
tp1300
sVmoney
p1301
(I2
I31882
tp1302
sVrest
p1303
(I2
I31479
tp1304
sVweekli
p1305
(I2
I2638
tp1306
sV1,880
p1307
(I1
I9021
tp1308
sVkilo
p1309
(I1
I4292
tp1310
sV1-3/8
p1311
(I1
I32920
tp1312
sVversu
p1313
(I1
I26521
tp1314
sV123.6
p1315
(I1
I26687
tp1316
sVexcept
p1317
(I2
I26014
tp1318
sVexercis
p1319
(I1
I12971
tp1320
sVreal
p1321
(I2
I27559
tp1322
sVpsi
p1323
(I1
I30511
tp1324
sVaround
p1325
(I3
I7015
tp1326
sVmob
p1327
(I1
I25055
tp1328
sVqtli
p1329
(I5
I28359
tp1330
sV've
p1331
(I1
I31686
tp1332
sVrepubl
p1333
(I1
I30809
tp1334
sVeither
p1335
(I1
I22289
tp1336
sVoutput
p1337
(I2
I25558
tp1338
sVmanag
p1339
(I3
I21743
tp1340
sVcabl
p1341
(I1
I18915
tp1342
sVsharehold
p1343
(I5
I18488
tp1344
sV67
p1345
(I1
I28727
tp1346
sVsatisfactori
p1347
(I1
I30481
tp1348
sV's
p1349
(I13
I13532
tp1350
sV1,060,848
p1351
(I1
I20967
tp1352
sV34-3/4
p1353
(I1
I32900
tp1354
sVlegal
p1355
(I1
I30681
tp1356
sVpower
p1357
(I1
I18827
tp1358
sV12,418,749
p1359
(I1
I29433
tp1360
sVon
p1361
(I15
I5500
tp1362
sV88-1/2
p1363
(I1
I32750
tp1364
sVcentral
p1365
(I1
I32110
tp1366
sVsrd
p1367
(I1
I30956
tp1368
sVisland
p1369
(I1
I18212
tp1370
sV3,086,386
p1371
(I1
I24210
tp1372
sVstand
p1373
(I1
I7160
tp1374
sVact
p1375
(I1
I19500
tp1376
sVindustri
p1377
(I3
I25879
tp1378
sVor
p1379
(I7
I17488
tp1380
sVroutin
p1381
(I1
I9218
tp1382
sVoutlook
p1383
(I1
I33060
tp1384
sVbanks'
p1385
(I1
I27918
tp1386
sVher
p1387
(I1
I19003
tp1388
sVarea
p1389
(I3
I9645
tp1390
sVdutch/shel
p1391
(I1
I31321
tp1392
sVthere
p1393
(I3
I5895
tp1394
sVstart
p1395
(I1
I25484
tp1396
sVbrazilian
p1397
(I1
I10325
tp1398
sValameda
p1399
(I1
I29214
tp1400
sV753
p1401
(I1
I9723
tp1402
sV126,117
p1403
(I1
I29483
tp1404
sV91.09
p1405
(I1
I21197
tp1406
sVbarrels/day
p1407
(I1
I25577
tp1408
sVwith
p1409
(I14
I6853
tp1410
sV4,351
p1411
(I1
I9473
tp1412
sV4,350
p1413
(I1
I9296
tp1414
sVpossibl
p1415
(I1
I32620
tp1416
sV31.7
p1417
(I1
I33410
tp1418
sVab
p1419
(I1
I25647
tp1420
sVad
p1421
(I3
I22658
tp1422
sVcertain
p1423
(I1
I13676
tp1424
sVan
p1425
(I11
I6737
tp1426
sVas
p1427
(I8
I6122
tp1428
sVat
p1429
(I13
I5057
tp1430
sVfile
p1431
(I1
I30521
tp1432
sV11
p1433
(I3
I24907
tp1434
sV4.1
p1435
(I1
I21295
tp1436
sV4.0
p1437
(I1
I21380
tp1438
sVfield
p1439
(I1
I33250
tp1440
sV5
(I2
I30868
tp1441
sVd'electro
p1442
(I2
I23079
tp1443
sVansi
p1444
(I2
I23900
tp1445
sVreduc
p1446
(I1
I30411
tp1447
sV9,438,425
p1448
(I1
I29314
tp1449
sVinvest
p1450
(I4
I26043
tp1451
sVminnesota-bas
p1452
(I1
I23675
tp1453
sVall
p1454
(I3
I8926
tp1455
sVdollar
p1456
(I3
I25677
tp1457
sVmonth
p1458
(I4
I21450
tp1459
sVdisc
p1460
(I1
I24663
tp1461
sVsettlement
p1462
(I1
I29029
tp1463
sVdsn
p1464
(I1
I30321
tp1465
sVtx
p1466
(I1
I32810
tp1467
sVto
p1468
(I29
I6203
tp1469
sVlow-octan
p1470
(I1
I25200
tp1471
sVpremium
p1472
(I1
I31371
tp1473
sVfar
p1474
(I1
I32050
tp1475
sVfat
p1476
(I1
I22399
tp1477
sVwitter
p1478
(I1
I33360
tp1479
sVfall
p1480
(I4
I25834
tp1481
sV1,875
p1482
(I1
I9198
tp1483
sVticket
p1484
(I1
I14761
tp1485
sV1,870
p1486
(I1
I9188
tp1487
sVlist
p1488
(I1
I30759
tp1489
sVadjust
p1490
(I2
I14975
tp1491
sVsaudi
p1492
(I1
I31775
tp1493
sVenterpris
p1494
(I1
I28111
tp1495
sVtex
p1496
(I1
I14173
tp1497
sV19-1/2
p1498
(I1
I30839
tp1499
sVfurther
p1500
(I2
I29761
tp1501
sVwhat
p1502
(I1
I31242
tp1503
sVfavor
p1504
(I1
I31833
tp1505
sVabl
p1506
(I2
I19548
tp1507
sVxon
p1508
(I1
I32730
tp1509
sVpublic
p1510
(I5
I24599
tp1511
sVfull
p1512
(I3
I19705
tp1513
sVthemselv
p1514
(I1
I29876
tp1515
sVpacif
p1516
(I1
I29692
tp1517
sVheller
p1518
(I2
I27394
tp1519
sVstrong
p1520
(I4
I22299
tp1521
sVvalu
p1522
(I3
I15684
tp1523
sVthrift
p1524
(I1
I27753
tp1525
sVahead
p1526
(I1
I33400
tp1527
sVfwb
p1528
(I1
I23546
tp1529
sVprior
p1530
(I3
I30114
tp1531
sVamount
p1532
(I3
I16201
tp1533
sVaction
p1534
(I4
I19577
tp1535
sVbrightest
p1536
(I1
I33210
tp1537
sV13.82
p1538
(I1
I33530
tp1539
sVvia
p1540
(I1
I15565
tp1541
sVdepart
p1542
(I2
I28340
tp1543
sVdeclin
p1544
(I4
I26357
tp1545
sVthatcher
p1546
(I1
I18638
tp1547
sVclifford
p1548
(I1
I22116
tp1549
sVregist
p1550
(I1
I9693
tp1551
sVtwo
p1552
(I5
I23685
tp1553
sVmore
p1554
(I5
I18715
tp1555
sVhundr
p1556
(I1
I7307
tp1557
sV6,561,000
p1558
(I2
I24013
tp1559
sVcompani
p1560
(I20
I12766
tp1561
sVtown
p1562
(I1
I23387
tp1563
sVlong-rang
p1564
(I1
I33340
tp1565
sVhistori
p1566
(I1
I29906
tp1567
sVremain
p1568
(I1
I21882
tp1569
sVnine
p1570
(I4
I24051
tp1571
sVdec
p1572
(I1
I9533
tp1573
sVregistr
p1574
(I1
I30561
tp1575
sVshare
p1576
(I12
I12301
tp1577
sVincom
p1578
(I1
I25975
tp1579
sVsharp
p1580
(I1
I26260
tp1581
sV5.1
p1582
(I1
I31361
tp1583
sV4,340
p1584
(I1
I9276
tp1585
sVcourt
p1586
(I1
I32480
tp1587
sVgoal
p1588
(I1
I30004
tp1589
sV84.09
p1590
(I1
I26088
tp1591
sV4,345
p1592
(I1
I9286
tp1593
sVanoth
p1594
(I2
I30701
tp1595
sVcompagni
p1596
(I1
I23050
tp1597
sVregener
p1598
(I1
I25318
tp1599
sVresourc
p1600
(I1
I30162
tp1601
sVfd
p1602
(I1
I28634
tp1603
sVassoci
p1604
(I2
I26618
tp1605
sVa
(I29
I4330
tp1606
sVstabil
p1607
(I2
I27326
tp1608
sVcircumst
p1609
(I2
I13686
tp1610
sVcaus
p1611
(I1
I25705
tp1612
sVcoal
p1613
(I1
I30262
tp1614
sVshore
p1615
(I1
I27286
tp1616
sVwoodhous
p1617
(I1
I22086
tp1618
sVhelp
p1619
(I2
I14386
tp1620
sVsoon
p1621
(I2
I18808
tp1622
sVtrade
p1623
(I6
I10335
tp1624
sVheld
p1625
(I5
I7868
tp1626
sVpaper
p1627
(I1
I30331
tp1628
sVscott
p1629
(I1
I30926
tp1630
sV8,894,000
p1631
(I2
I24172
tp1632
sV1.93
p1633
(I1
I30172
tp1634
sV24
p1635
(I1
I28879
tp1636
sV25
p1637
(I3
I16565
tp1638
sV27
p1639
(I1
I10581
tp1640
sV20
p1641
(I3
I21032
tp1642
sV22
p1643
(I3
I3797
tp1644
sVgerald
p1645
(I1
I21713
tp1646
sV28
p1647
(I5
I10046
tp1648
sVpct
p1649
(I11
I13416
tp1650
sVlate
p1651
(I2
I3347
tp1652
sVargentina
p1653
(I1
I9763
tp1654
sVmight
p1655
(I2
I31252
tp1656
sVgood
p1657
(I2
I7750
tp1658
sV191,000
p1659
(I2
I23975
tp1660
sVconsign
p1661
(I1
I5652
tp1662
sV4,415
p1663
(I1
I9463
tp1664
sVdrake
p1665
(I1
I22096
tp1666
sVcompris
p1667
(I1
I32140
tp1668
sVfound
p1669
(I1
I32660
tp1670
sVengland
p1671
(I1
I31971
tp1672
sVidea
p1673
(I1
I27713
tp1674
sVrealli
p1675
(I1
I19340
tp1676
sVheavi
p1677
(I1
I32950
tp1678
sVexpect
p1679
(I8
I10100
tp1680
sVunlead
p1681
(I1
I25279
tp1682
sVenergi
p1683
(I2
I26118
tp1684
sVrobert
p1685
(I2
I27453
tp1686
sVpartnership'
p1687
(I1
I30730
tp1688
sVpublish
p1689
(I1
I10181
tp1690
sVhygeia
p1691
(I1
I30451
tp1692
sVshipment
p1693
(I1
I8291
tp1694
sV'sourc
p1695
(I1
I27985
tp1696
sVamerica'
p1697
(I1
I28290
tp1698
sVextraordinari
p1699
(I1
I26966
tp1700
sVwisconsin
p1701
(I1
I23536
tp1702
sVdunn
p1703
(I1
I30341
tp1704
sVadvanc
p1705
(I1
I28516
tp1706
sVbeliev
p1707
(I2
I27654
tp1708
sVask
p1709
(I1
I28747
tp1710
sVbasi
p1711
(I3
I25338
tp1712
sVdirector
p1713
(I2
I29531
tp1714
sVamerican
p1715
(I5
I23827
tp1716
sVcircuit
p1717
(I1
I17992
tp1718
sVmajor
p1719
(I4
I18030
tp1720
sVexchang
p1721
(I3
I16527
tp1722
sVnumber
p1723
(I1
I28757
tp1724
sVfeet
p1725
(I1
I21207
tp1726
sVleast
p1727
(I1
I28180
tp1728
sV1987/88
p1729
(I2
I9999
tp1730
sVstabl
p1731
(I1
I31735
tp1732
sVconstruct
p1733
(I1
I25474
tp1734
sVcontra
p1735
(I1
I29224
tp1736
sV1,204,080
p1737
(I1
I26886
tp1738
sVstore
p1739
(I3
I24869
tp1740
sVstatement
p1741
(I1
I30571
tp1742
sV5.93
p1743
(I1
I4760
tp1744
sVpari
p1745
(I1
I27355
tp1746
sVpart
p1747
(I4
I7769
tp1748
sVuneconom
p1749
(I1
I30252
tp1750
sVconsult
p1751
(I1
I26491
tp1752
sVsign
p1753
(I2
I29790
tp1754
sVking
p1755
(I1
I30541
tp1756
sVstg
p1757
(I1
I31961
tp1758
sVremov
p1759
(I1
I28250
tp1760
sVprescott
p1761
(I1
I32330
tp1762
sVarrang
p1763
(I1
I31508
tp1764
sVcomput
p1765
(I2
I10591
tp1766
sVstrengthen
p1767
(I1
I27491
tp1768
sVtwo-for-on
p1769
(I2
I18469
tp1770
sVreeacquisit
p1771
(I1
I24550
tp1772
sVsell
p1773
(I4
I9802
tp1774
sVquestech
p1775
(I1
I19950
tp1776
sVmiddlemen
p1777
(I1
I7347
tp1778
sValso
p1779
(I10
I8809
tp1780
sV7.75
p1781
(I1
I16593
tp1782
sVchairman
p1783
(I1
I21555
tp1784
sVu.k
p1785
(I1
I18570
tp1786
sVdistribut
p1787
(I2
I28961
tp1788
sV4,480
p1789
(I1
I9523
tp1790
sVpreviou
p1791
(I2
I21070
tp1792
sVreach
p1793
(I2
I17925
tp1794
sVmost
p1795
(I2
I22165
tp1796
sV75
p1797
(I3
I13891
tp1798
sV91.7
p1799
(I1
I26677
tp1800
sV73
p1801
(I1
I28565
tp1802
sVplan
p1803
(I8
I14305
tp1804
sV70
p1805
(I3
I29606
tp1806
sVcharg
p1807
(I3
I20894
tp1808
sVclear
p1809
(I1
I32240
tp1810
sVbarrel
p1811
(I3
I25436
tp1812
sVsector
p1813
(I1
I26551
tp1814
sVhumid
p1815
(I1
I1741
tp1816
sVilacqua
p1817
(I1
I33490
tp1818
sVsession
p1819
(I2
I32011
tp1820
sVparticularli
p1821
(I1
I32420
tp1822
sVpreviously-announc
p1823
(I1
I30441
tp1824
sVimpact
p1825
(I1
I14060
tp1826
sVaccess
p1827
(I2
I18857
tp1828
sVgiant
p1829
(I1
I33050
tp1830
sVnorthern
p1831
(I1
I29194
tp1832
sVequiti
p1833
(I1
I31528
tp1834
sVmerger
p1835
(I1
I29682
tp1836
sV24-year
p1837
(I1
I29896
tp1838
sVfinanc
p1839
(I2
I27042
tp1840
sVenergy-steel
p1841
(I1
I32470
tp1842
sV1986/87
p1843
(I1
I9979
tp1844
sVmargosh
p1845
(I1
I32270
tp1846
sVopec
p1847
(I2
I31795
tp1848
sV125,000
p1849
(I1
I24683
tp1850
sVeugen
p1851
(I1
I33370
tp1852
sVstatist
p1853
(I2
I15217
tp1854
sVswitzerland
p1855
(I1
I12746
tp1856
sVriver
p1857
(I1
I30361
tp1858
sVcrn
p1859
(I1
I30936
tp1860
sV990,000
p1861
(I2
I24134
tp1862
sVwrote
p1863
(I1
I19097
tp1864
sVcertif
p1865
(I1
I7574
tp1866
sV900,000
p1867
(I1
I30024
tp1868
sVset
p1869
(I5
I25494
tp1870
sV315
p1871
(I1
I32180
tp1872
sVsee
p1873
(I7
I16723
tp1874
sVare
p1875
(I9
I7199
tp1876
sVtender
p1877
(I1
I32290
tp1878
sV2.2
p1879
(I1
I24713
tp1880
sV2.1
p1881
(I1
I21430
tp1882
sV2.6
p1883
(I1
I14994
tp1884
sV2.5
p1885
(I1
I25607
tp1886
sV2.4
p1887
(I1
I24703
tp1888
sVexpert
p1889
(I1
I22493
tp1890
sVwon
p1891
(I1
I32300
tp1892
sVkorea
p1893
(I1
I26806
tp1894
sVsold
p1895
(I5
I7696
tp1896
sVdividend
p1897
(I6
I28644
tp1898
sV1,850
p1899
(I1
I9011
tp1900
sVboth
p1901
(I4
I22344
tp1902
sVlast
p1903
(I4
I5246
tp1904
sVlicense
p1905
(I1
I14257
tp1906
sVannual
p1907
(I3
I18542
tp1908
sVrose
p1909
(I4
I8005
tp1910
sVlong-term
p1911
(I1
I33140
tp1912
sVprudho
p1913
(I1
I33230
tp1914
sVcarniv
p1915
(I1
I10454
tp1916
sVindusti
p1917
(I1
I30074
tp1918
sVpoint
p1919
(I2
I31558
tp1920
sV1-3/4
p1921
(I1
I32870
tp1922
sVshutdown
p1923
(I1
I25376
tp1924
sVbatteri
p1925
(I2
I22905
tp1926
sVthroughout
p1927
(I1
I112
tp1928
sVn.v.
p1929
(I1
I12726
tp1930
sVdue
p1931
(I1
I31745
tp1932
sVwhom
p1933
(I1
I31095
tp1934
sVkokusai
p1935
(I1
I19782
tp1936
sVanthoni
p1937
(I1
I22066
tp1938
sV6.13
p1939
(I1
I9969
tp1940
sVfund
p1941
(I1
I31901
tp1942
sVpartli
p1943
(I1
I30401
tp1944
sVdemand
p1945
(I1
I26431
tp1946
sVcpml
p1947
(I1
I11665
tp1948
sV48.09
p1949
(I1
I21305
tp1950
sVlook
p1951
(I1
I33120
tp1952
sVbill
p1953
(I1
I32120
tp1954
sVmln
p1955
(I21
I4770
tp1956
sVgovernor
p1957
(I1
I27443
tp1958
sVmlp
p1959
(I1
I30551
tp1960
sVabov
p1961
(I1
I31281
tp1962
sVloot
p1963
(I1
I28240
tp1964
sV19.4
p1965
(I1
I21265
tp1966
sVearli
p1967
(I3
I1117
tp1968
sV19.6
p1969
(I1
I16693
tp1970
sV2,380
p1971
(I1
I9857
tp1972
sVchase
p1973
(I1
I31401
tp1974
sVexchequ
p1975
(I1
I27139
tp1976
sV527,065
p1977
(I1
I26876
tp1978
sVitali
p1979
(I1
I22696
tp1980
sV.125
p1981
(I1
I13107
tp1982
sVhigher
p1983
(I4
I17706
tp1984
sVyesterday
p1985
(I1
I16108
tp1986
sVuser
p1987
(I1
I29672
tp1988
sVextrem
p1989
(I1
I33280
tp1990
sVclimb
p1991
(I1
I32820
tp1992
sVrecent
p1993
(I1
I7686
tp1994
sVlower
p1995
(I1
I7603
tp1996
sV15.4
p1997
(I1
I24446
tp1998
sV5.81
p1999
(I1
I5047
tp2000
sVwithdraw
p2001
(I1
I29751
tp2002
sVspend
p2003
(I2
I25085
tp2004
sVpropos
p2005
(I2
I19753
tp2006
sVyear-on-year
p2007
(I1
I15158
tp2008
sVworld
p2009
(I3
I26270
tp2010
sVtaiwan
p2011
(I1
I26816
tp2012
sV74.5
p2013
(I1
I24965
tp2014
sVstabilis
p2015
(I1
I27365
tp2016
sV...
p2017
(I2
I19360
tp2018
sVmarch
p2019
(I5
I8384
tp2020
sVformat
p2021
(I1
I27511
tp2022
sVbid
p2023
(I4
I15575
tp2024
sVgame
p2025
(I1
I31035
tp2026
sVoutright
p2027
(I1
I32130
tp2028
sV86.19
p2029
(I1
I26098
tp2030
sVsignal
p2031
(I2
I31814
tp2032
sVvisibl
p2033
(I1
I33390
tp2034
sVsome
p2035
(I1
I6102
tp2036
sVback
p2037
(I1
I31587
tp2038
sV3.6
p2039
(I1
I25597
tp2040
sVstrongest
p2041
(I1
I29886
tp2042
sV3.1
p2043
(I1
I25617
tp2044
sV785,000
p2045
(I1
I23496
tp2046
sV5,524,000
p2047
(I1
I23456
tp2048
sV3,175
p2049
(I1
I20481
tp2050
sV8,094,000
p2051
(I1
I23466
tp2052
sV17-1/2
p2053
(I1
I30946
tp2054
sV308
p2055
(I1
I33520
tp2056
sVbe
p2057
(I14
I3204
tp2058
sVclanci
p2059
(I1
I21723
tp2060
sV83.2
p2061
(I1
I24955
tp2062
sVrun
p2063
(I2
I29324
tp2064
sV166,000
p2065
(I1
I24376
tp2066
sVagreement
p2067
(I3
I17944
tp2068
sV391,000
p2069
(I1
I24426
tp2070
sVbp
p2071
(I3
I29503
tp2072
sVfeb
p2073
(I3
I23947
tp2074
sVby
p2075
(I13
I10191
tp2076
sVcommun
p2077
(I1
I22279
tp2078
sV3,772,000
p2079
(I1
I24396
tp2080
sV74
p2081
(I1
I28717
tp2082
sVcharl
p2083
(I1
I21988
tp2084
sV37-3/4
p2085
(I1
I32840
tp2086
sVprimarili
p2087
(I1
I29974
tp2088
sVinto
p2089
(I2
I25230
tp2090
sVwithin
p2091
(I1
I31607
tp2092
sVamerada
p2093
(I1
I32630
tp2094
sVensur
p2095
(I1
I14576
tp2096
sVannounc
p2097
(I4
I18424
tp2098
sVinstitut
p2099
(I2
I27849
tp2100
sVagricultur
p2101
(I1
I22483
tp2102
sVlong
p2103
(I1
I28081
tp2104
sVcustom
p2105
(I1
I28210
tp2106
sV1.50
p2107
(I1
I14020
tp2108
sVu.
p2109
(I1
I33420
tp2110
sVinclud
p2111
(I10
I5769
tp2112
sVoccident
p2113
(I1
I32880
tp2114
sV:
(I8
I20813
tp2115
sVreorgan
p2116
(I1
I14295
tp2117
sVsubsidiari
p2118
(I5
I16147
tp2119
sV12,837,088
p2120
(I1
I29423
tp2121
sVline
p2122
(I3
I18002
tp2123
sV83-3/4
p2124
(I1
I32930
tp2125
sVpiri
p2126
(I1
I30916
tp2127
sV114,000
p2128
(I1
I17478
tp2129
sVup
p2130
(I7
I13290
tp2131
sV53,412,000
p2132
(I1
I30192
tp2133
sV211,000
p2134
(I1
I24743
tp2135
sVviacom
p2136
(I1
I15555
tp2137
sV4,479,000
p2138
(I1
I30202
tp2139
sVralli
p2140
(I1
I32700
tp2141
sV8,250,222
p2142
(I1
I28585
tp2143
sVcapit
p2144
(I2
I28042
tp2145
sV1/4
p2146
(I1
I32830
tp2147
sV105.3
p2148
(I1
I26796
tp2149
sVcotton
p2150
(I1
I29294
tp2151
sVtitl
p2152
(I1
I29174
tp2153
sVswirl
p2154
(I1
I32560
tp2155
sV7,579,547
p2156
(I1
I26936
tp2157
sVdraw
p2158
(I1
I31498
tp2159
sV3,895,267
p2160
(I1
I28575
tp2161
sVevan
p2162
(I1
I22126
tp2163
sVago
p2164
(I2
I15198
tp2165
sVvice
p2166
(I1
I21703
tp2167
sVdemico
p2168
(I1
I22136
tp2169
sV2000
p2170
(I1
I26347
tp2171
sVbarrels/year
p2172
(I1
I25587
tp2173
sVgv
p2174
(I1
I26866
tp2175
sVkatz
p2176
(I1
I21791
tp2177
sVpartial
p2178
(I1
I26402
tp2179
sVga
p2180
(I2
I21236
tp2181
sVgo
p2182
(I3
I8983
tp2183
sVprice-fix
p2184
(I1
I22600
tp2185
sVsimon
p2186
(I1
I31005
tp2187
sVcts/shr
p2188
(I1
I24811
tp2189
sVquarterli
p2190
(I1
I28707
tp2191
sVdisclos
p2192
(I4
I18139
tp2193
sVelectron
p2194
(I1
I23367
tp2195
sVgeograph
p2196
(I1
I27693
tp2197
sV2.28
p2198
(I1
I9493
tp2199
sV2.27
p2200
(I1
I9326
tp2201
sVlazier
p2202
(I1
I32370
tp2203
sV12,987,834
p2204
(I1
I29353
tp2205
sVnatur
p2206
(I2
I21217
tp2207
sVcrop
p2208
(I2
I6563
tp2209
sVjump
p2210
(I1
I32780
tp2211
sVcompar
p2212
(I4
I15004
tp2213
sVlehman
p2214
(I2
I22037
tp2215
sVbearish
p2216
(I1
I33070
tp2217
sVrichmond
p2218
(I1
I30461
tp2219
sV;
(I34
I11326
tp2220
sVlet
p2221
(I1
I31212
tp2222
sVn.z
p2223
(I1
I14781
tp2224
sVbecom
p2225
(I3
I19510
tp2226
sVsinc
p2227
(I4
I1072
tp2228
sVjointli
p2229
(I1
I26240
tp2230
sVconvert
p2231
(I2
I9773
tp2232
sV10-7/8
p2233
(I1
I32170
tp2234
sV33
p2235
(I1
I31577
tp2236
sV31
p2237
(I2
I24792
tp2238
sV30
p2239
(I3
I25104
tp2240
sVtechnolog
p2241
(I1
I14070
tp2242
sV35
p2243
(I1
I9031
tp2244
sVchang
p2245
(I3
I13733
tp2246
sVchanc
p2247
(I1
I31706
tp2248
sVemploye
p2249
(I2
I23216
tp2250
sVu.k.
p2251
(I3
I18687
tp2252
sVheart
p2253
(I1
I33150
tp2254
sV7.53
p2255
(I1
I25794
tp2256
sV330
p2257
(I1
I22800
tp2258
sVrestaur
p2259
(I1
I30611
tp2260
sV2,325
p2261
(I1
I9847
tp2262
sVwritedown
p2263
(I1
I30242
tp2264
sVuse
p2265
(I1
I25259
tp2266
sVfrom
p2267
(I15
I17326
tp2268
sV&
(I34
I10648
tp2269
sVdoubl
p2270
(I1
I26826
tp2271
sVupgrad
p2272
(I1
I25065
tp2273
sVnext
p2274
(I2
I22629
tp2275
sVimplic
p2276
(I1
I32400
tp2277
sVfew
p2278
(I1
I7297
tp2279
sVdoubt
p2280
(I1
I6112
tp2281
sVadvoc
p2282
(I1
I27723
tp2283
sVchv
p2284
(I1
I32770
tp2285
sVyear-ago
p2286
(I1
I17915
tp2287
sVmidday
p2288
(I1
I10571
tp2289
sVusx
p2290
(I1
I32460
tp2291
sVparliament
p2292
(I1
I18905
tp2293
sVsharpli
p2294
(I2
I26328
tp2295
sV1,780
p2296
(I1
I8448
tp2297
sVbenchmark
p2298
(I1
I33160
tp2299
sVharvest
p2300
(I1
I6610
tp2301
sVaccount
p2302
(I1
I24486
tp2303
sV613,205
p2304
(I1
I26906
tp2305
sV271,000
p2306
(I1
I24733
tp2307
sVof
p2308
(I32
I3943
tp2309
sVmeet
p2310
(I4
I15867
tp2311
sVcontrol
p2312
(I3
I13761
tp2313
sVsafeco
p2314
(I1
I29184
tp2315
sVprocess
p2316
(I1
I29712
tp2317
sVcomissaria
p2318
(I1
I2066
tp2319
sVtax
p2320
(I2
I22241
tp2321
sVhigh
p2322
(I1
I32970
tp2323
sVtag
p2324
(I1
I14751
tp2325
sVslip
p2326
(I1
I21285
tp2327
sV10.02
p2328
(I1
I33510
tp2329
sVweaken
p2330
(I1
I25667
tp2331
sVforese
p2332
(I1
I32570
tp2333
sVsix
p2334
(I7
I24304
tp2335
sVdelay
p2336
(I1
I31666
tp2337
sV47.5
p2338
(I1
I20712
tp2339
sVstock
p2340
(I8
I12480
tp2341
sVexpress
p2342
(I1
I19146
tp2343
sVfarm
p2344
(I1
I22590
tp2345
sVattent
p2346
(I1
I32520
tp2347
sVqtec
p2348
(I1
I19960
tp2349
sValloc
p2350
(I1
I25784
tp2351
sVlight
p2352
(I1
I8916
tp2353
sVprocessor
p2354
(I1
I7376
tp2355
sVissu
p2356
(I1
I32410
tp2357
sVchief
p2358
(I1
I25734
tp2359
sVallow
p2360
(I2
I25299
tp2361
sVhouston
p2362
(I1
I14163
tp2363
sVmove
p2364
(I3
I14267
tp2365
sVmeter
p2366
(I1
I21109
tp2367
sV130
p2368
(I1
I26667
tp2369
sVcsce
p2370
(I1
I21619
tp2371
sVtemporao
p2372
(I1
I1702
tp2373
sV2-for-1
p2374
(I1
I28477
tp2375
sVlabor
p2376
(I1
I30491
tp2377
sVlt
p2378
(I34
I10987
tp2379
sVgreater
p2380
(I1
I31872
tp2381
sVnakason
p2382
(I1
I19117
tp2383
sVhandl
p2384
(I2
I27763
tp2385
sVyearend
p2386
(I2
I23749
tp2387
sVmention
p2388
(I1
I32450
tp2389
sVinvestor
p2390
(I4
I23171
tp2391
sVday
p2392
(I1
I25464
tp2393
sVfebruari
p2394
(I3
I3769
tp2395
sVoils/fat
p2396
(I1
I22231
tp2397
sVcommonwealth
p2398
(I1
I29019
tp2399
sV89
p2400
(I1
I26697
tp2401
sV82
p2402
(I1
I24985
tp2403
sVour
p2404
(I2
I19156
tp2405
sV80
p2406
(I1
I26846
tp2407
sVbay
p2408
(I1
I33240
tp2409
sVspecial
p2410
(I4
I15731
tp2411
sVout
p2412
(I3
I25937
tp2413
sVmatrix
p2414
(I1
I14050
tp2415
sV'
(I2
I16118
tp2416
sVbag
p2417
(I1
I3933
tp2418
sVrev
p2419
(I9
I20501
tp2420
sVrel
p2421
(I1
I27316
tp2422
sVcommon
p2423
(I5
I12426
tp2424
sVfranc
p2425
(I1
I22686
tp2426
sVshut
p2427
(I1
I25396
tp2428
sVtakeov
p2429
(I1
I32590
tp2430
sVregulatori
p2431
(I1
I31646
tp2432
sV2.51
p2433
(I1
I21495
tp2434
sVecu
p2435
(I1
I22810
tp2436
sVyork
p2437
(I4
I9123
tp2438
sVreleas
p2439
(I2
I15236
tp2440
sVcould
p2441
(I2
I27472
tp2442
sVdavid
p2443
(I1
I30995
tp2444
sVltd
p2445
(I3
I18377
tp2446
sVsouth
p2447
(I1
I26441
tp2448
sVpre-split
p2449
(I1
I28806
tp2450
sV450
p2451
(I1
I32100
tp2452
sVqualiti
p2453
(I1
I7613
tp2454
sVsystem
p2455
(I2
I10629
tp2456
sVgrow
p2457
(I1
I18580
tp2458
sVtheir
p2459
(I5
I7814
tp2460
sVtermin
p2461
(I2
I10610
tp2462
sVfinal
p2463
(I3
I10018
tp2464
sVshell
p2465
(I1
I31351
tp2466
sVnfsi
p2467
(I1
I24240
tp2468
sVjuli
p2469
(I1
I9168
tp2470
sVsteel
p2471
(I1
I26756
tp2472
sV42.75
p2473
(I1
I16462
tp2474
sVdeliveri
p2475
(I2
I14684
tp2476
sVpartnership
p2477
(I1
I30581
tp2478
sVhave
p2479
(I10
I1770
tp2480
sVclose
p2481
(I2
I29955
tp2482
sVneed
p2483
(I2
I27081
tp2484
sVshe
p2485
(I1
I18876
tp2486
sVlugano
p2487
(I1
I12736
tp2488
sVinform
p2489
(I1
I31636
tp2490
sV16.74
p2491
(I1
I15346
tp2492
sV124.6
p2493
(I1
I26707
tp2494
sVwhich
p2495
(I10
I10464
tp2496
sVso
p2497
(I1
I32040
tp2498
sVcoke
p2499
(I1
I26637
tp2500
sVsoar
p2501
(I1
I21147
tp2502
sVregard
p2503
(I1
I18993
tp2504
sVfidel
p2505
(I1
I29116
tp2506
sVpresid
p2507
(I1
I22008
tp2508
sVdomestically-produc
p2509
(I1
I22389
tp2510
sVeight
p2511
(I1
I23506
tp2512
sVclass
p2513
(I1
I30094
tp2514
sVepub
p2515
(I1
I29916
tp2516
sVurg
p2517
(I1
I27413
tp2518
sValaskan
p2519
(I1
I33220
tp2520
sVdenshin
p2521
(I1
I19792
tp2522
sVfact
p2523
(I1
I33040
tp2524
sVcruzado
p2525
(I1
I8070
tp2526
sVbring
p2527
(I1
I32030
tp2528
sVnowak
p2529
(I1
I33380
tp2530
sVtexa
p2531
(I2
I25152
tp2532
sV(
(I5
I21565
tp2533
sVshould
p2534
(I1
I28121
tp2535
sVmanufactur
p2536
(I1
I30311
tp2537
sVrestructur
p2538
(I1
I32680
tp2539
sVb
(I1
I30104
tp2540
sVdiscontinu
p2541
(I4
I20922
tp2542
sVhope
p2543
(I1
I31862
tp2544
sV142.4
p2545
(I1
I23476
tp2546
sVbeat
p2547
(I1
I33090
tp2548
sV120
p2549
(I1
I32150
tp2550
sVbean
p2551
(I1
I7932
tp2552
sVincreas
p2553
(I7
I13155
tp2554
sVshr
p2555
(I10
I19970
tp2556
sVshu
p2557
(I1
I23397
tp2558
sVintegr
p2559
(I1
I31696
tp2560
sVview
p2561
(I2
I7584
tp2562
sVqtr
p2563
(I9
I16805
tp2564
sV34.5
p2565
(I1
I15188
tp2566
sVdiversif
p2567
(I1
I27673
tp2568
sVreform
p2569
(I2
I25181
tp2570
sVdlr
p2571
(I18
I8458
tp2572
sVstate
p2573
(I3
I22203
tp2574
sVcensu
p2575
(I1
I29383
tp2576
sVcrude
p2577
(I1
I33170
tp2578
sVprogress
p2579
(I1
I31025
tp2580
sVhard-to-replac
p2581
(I1
I33320
tp2582
sVbought
p2583
(I1
I32200
tp2584
sVkey
p2585
(I1
I27703
tp2586
sVaddit
p2587
(I3
I12625
tp2588
sVextens
p2589
(I1
I27811
tp2590
sVequal
p2591
(I2
I13872
tp2592
sV32.9
p2593
(I1
I17886
tp2594
sVapril
p2595
(I6
I28816
tp2596
sVcommitte
p2597
(I3
I15776
tp2598
sVrodney
p2599
(I1
I31391
tp2600
sV32.7
p2601
(I1
I30222
tp2602
sV32.6
p2603
(I1
I26746
tp2604
sVcomment
p2605
(I1
I27237
tp2606
sVco
p2607
(I7
I18305
tp2608
sVwall
p2609
(I1
I32990
tp2610
sVarriv
p2611
(I1
I3643
tp2612
sVrespect
p2613
(I1
I23526
tp2614
sVucl
p2615
(I1
I32860
tp2616
sVct
p2617
(I17
I16284
tp2618
sV8.2
p2619
(I1
I24763
tp2620
sV333.8
p2621
(I1
I25025
tp2622
sVcompon
p2623
(I1
I25210
tp2624
sV>
(I34
I11675
tp2625
sVtreasur
p2626
(I2
I22146
tp2627
sV461
p2628
(I1
I32060
tp2629
sVbulk
p2630
(I1
I26541
tp2631
sVstock'
p2632
(I1
I13919
tp2633
sVarisen
p2634
(I1
I27296
tp2635
sV58.6
p2636
(I1
I26736
tp2637
sVwill
p2638
(I11
I3088
tp2639
sV1,129,000
p2640
(I1
I24935
tp2641
sVpurchas
p2642
(I5
I13053
tp2643
sValmost
p2644
(I2
I7170
tp2645
sVvs
p2646
(I13
I20221
tp2647
sVarabia
p2648
(I1
I31785
tp2649
sVpartner
p2650
(I2
I30740
tp2651
sVrevis
p2652
(I1
I32070
tp2653
sVavg
p2654
(I2
I24191
tp2655
sVshearson
p2656
(I2
I22018
tp2657
sVscienc
p2658
(I2
I28536
tp2659
sVjapanes
p2660
(I2
I18769
tp2661
sV)
(I5
I21629
tp2662
sVmember
p2663
(I3
I21892
tp2664
sVlargest
p2665
(I1
I33310
tp2666
sVinc
p2667
(I21
I12077
tp2668
sVcompetit
p2669
(I1
I28330
tp2670
sVball
p2671
(I1
I32340
tp2672
sVcubic
p2673
(I1
I21099
tp2674
sVbale
p2675
(I1
I29343
tp2676
sVeffect
p2677
(I1
I28160
tp2678
sVcoffe
p2679
(I1
I21535
tp2680
sVdenwa
p2681
(I1
I19802
tp2682
sVoff
p2683
(I1
I25637
tp2684
sVi
(I4
I19052
tp2685
sVunit'
p2686
(I1
I30601
tp2687
sV234,745
p2688
(I1
I28605
tp2689
sVexampl
p2690
(I1
I19408
tp2691
sV7.73
p2692
(I1
I21390
tp2693
sV350
p2694
(I1
I8060
tp2695
sV1.25
p2696
(I1
I9877
tp2697
sVlatest
p2698
(I1
I31921
tp2699
sVless
p2700
(I1
I32210
tp2701
sVobtain
p2702
(I1
I7544
tp2703
sVunattract
p2704
(I1
I32690
tp2705
sVassur
p2706
(I1
I28220
tp2707
sVpaul
p2708
(I1
I23817
tp2709
sVhess
p2710
(I1
I32640
tp2711
sVsmith
p2712
(I1
I2076
tp2713
sVdiscuss
p2714
(I1
I27032
tp2715
sVarrest
p2716
(I1
I28320
tp2717
sVbook
p2718
(I1
I8374
tp2719
sVcrack
p2720
(I1
I32320
tp2721
sVwarrant
p2722
(I1
I12561
tp2723
sVchancellor
p2724
(I1
I27129
tp2725
sVfive
p2726
(I7
I12981
tp2727
sVplung
p2728
(I1
I21255
tp2729
sVloss
p2730
(I13
I20077
tp2731
sVlike
p2732
(I2
I27521
tp2733
sVlost
p2734
(I1
I30014
tp2735
sVcorpor
p2736
(I1
I28190
tp2737
sVlawson
p2738
(I1
I27159
tp2739
sVnecessari
p2740
(I1
I27888
tp2741
sVdivest
p2742
(I1
I23302
tp2743
sV59-5/8
p2744
(I1
I33030
tp2745
sVexceed
p2746
(I2
I14001
tp2747
sVincent
p2748
(I1
I28230
tp2749
sVgrowth
p2750
(I2
I14873
tp2751
sVexport
p2752
(I2
I7357
tp2753
sVhome
p2754
(I1
I29264
tp2755
sVcontig
p2756
(I1
I30691
tp2757
sVfeder
p2758
(I4
I21315
tp2759
sVlead
p2760
(I2
I22753
tp2761
sVbroad
p2762
(I1
I27423
tp2763
sVavoid
p2764
(I1
I27898
tp2765
sVminer
p2766
(I1
I30272
tp2767
sVestim
p2768
(I2
I6996
tp2769
sValthough
p2770
(I2
I1712
tp2771
sVoffset
p2772
(I2
I26412
tp2773
sVstage
p2774
(I1
I5236
tp2775
sVpayout
p2776
(I1
I30064
tp2777
sVabout
p2778
(I5
I23576
tp2779
sV25.2
p2780
(I1
I21157
tp2781
sV398.4
p2782
(I1
I25015
tp2783
sV18.60
p2784
(I1
I33200
tp2785
sVwashington
p2786
(I1
I31676
tp2787
sVcocoa
p2788
(I2
I10
tp2789
sV5.25
p2790
(I1
I21525
tp2791
sVmerg
p2792
(I1
I29809
tp2793
sV1986
p2794
(I12
I15366
tp2795
sV1987
p2796
(I1
I23436
tp2797
sV1984
p2798
(I1
I29443
tp2799
sV1985
p2800
(I8
I21801
tp2801
sVtexaco
p2802
(I1
I32800
tp2803
sV9.4
p2804
(I1
I15049
tp2805
sVfunction
p2806
(I1
I27782
tp2807
sVfiscal
p2808
(I1
I30671
tp2809
sVbuy
p2810
(I3
I13127
tp2811
sVnorth
p2812
(I1
I33260
tp2813
sVdificulti
p2814
(I1
I7534
tp2815
sVbrand
p2816
(I1
I29493
tp2817
sVbut
p2818
(I5
I14183
tp2819
sV3,237,235
p2820
(I1
I28595
tp2821
sVgain
p2822
(I3
I26976
tp2823
sVeas
p2824
(I1
I21505
tp2825
sVha
p2826
(I9
I6620
tp2827
sVhe
p2828
(I6
I19857
tp2829
sVmade
p2830
(I3
I9238
tp2831
sVva.
p2832
(I1
I30471
tp2833
sVwhether
p2834
(I1
I27247
tp2835
sV1,099,778
p2836
(I1
I26916
tp2837
sVvolvo
p2838
(I1
I25627
tp2839
sVrecord
p2840
(I7
I28889
tp2841
sVbelow
p2842
(I1
I31597
tp2843
sVlimit
p2844
(I3
I8346
tp2845
sVcake
p2846
(I1
I9683
tp2847
sV200,000
p2848
(I1
I12291
tp2849
sVproblem
p2850
(I1
I31656
tp2851
sV4,450
p2852
(I1
I9483
tp2853
sVfirm
p2854
(I1
I32580
tp2855
sVreciproc
p2856
(I1
I18847
tp2857
sVevalu
p2858
(I1
I31115
tp2859
sVdure
p2860
(I1
I22542
tp2861
sVnovemb
p2862
(I1
I29819
tp2863
sVpehr
p2864
(I1
I25744
tp2865
sV21.09
p2866
(I1
I21275
tp2867
sVmutual
p2868
(I2
I29722
tp2869
sV45
p2870
(I3
I9041
tp2871
sV40
p2872
(I5
I13362
tp2873
sVgoldfield
p2874
(I1
I26856
tp2875
sVother
p2876
(I5
I19632
tp2877
sVfutur
p2878
(I4
I14108
tp2879
sV2-1/4
p2880
(I1
I33020
tp2881
sVmonday
p2882
(I1
I22648
tp2883
sVmarch/april
p2884
(I1
I9266
tp2885
sVjune
p2886
(I2
I30849
tp2887
sVstay
p2888
(I1
I33080
tp2889
sVmargaret
p2890
(I1
I18677
tp2891
sVexperienc
p2892
(I1
I7524
tp2893
sVccn
p2894
(I1
I30044
tp2895
sVpension
p2896
(I1
I21968
tp2897
sVarms-length
p2898
(I1
I27878
tp2899
sVdecemb
p2900
(I4
I15059
tp2901
s.