ccopy_reg
_reconstructor
p1
(ctools
Root
p2
c__builtin__
object
p3
NtRp4
(dp5
S'head'
p6
g1
(ctools
Element
p7
g3
NtRp8
(dp9
S'docID'
p10
I1
sbsS'last'
p11
g8
sb.
ccopy_reg
_reconstructor
p1
(ctools
Root
p2
c__builtin__
object
p3
NtRp4
(dp5
S'head'
p6
g1
(ctools
Element
p7
g3
NtRp8
(dp9
S'docID'
p10
I1
sbsS'last'
p11
g8
sb.
ccopy_reg
_reconstructor
p1
(ctools
Root
p2
c__builtin__
object
p3
NtRp4
(dp5
S'head'
p6
g1
(ctools
Element
p7
g3
NtRp8
(dp9
S'docID'
p10
I1
sbsS'last'
p11
g8
sb.
ccopy_reg
_reconstructor
p1
(ctools
Root
p2
c__builtin__
object
p3
NtRp4
(dp5
S'head'
p6
g1
(ctools
Element
p7
g3
NtRp8
(dp9
S'docID'
p10
I1
sbsS'last'
p11
g8
sb.
ccopy_reg
_reconstructor
p1
(ctools
Root
p2
c__builtin__
object
p3
NtRp4
(dp5
S'head'
p6
g1
(ctools
Element
p7
g3
NtRp8
(dp9
S'docID'
p10
I1
sbsS'last'
p11
g8
sb.
ccopy_reg
_reconstructor
p1
(ctools
Root
p2
c__builtin__
object
p3
NtRp4
(dp5
S'head'
p6
g1
(ctools
Element
p7
g3
NtRp8
(dp9
S'docID'
p10
I1
sbsS'last'
p11
g8
sb.
ccopy_reg
_reconstructor
p1
(ctools
Root
p2
c__builtin__
object
p3
NtRp4
(dp5
S'head'
p6
g1
(ctools
Element
p7
g3
NtRp8
(dp9
S'docID'
p10
I1
sbsS'last'
p11
g8
sb.
ccopy_reg
_reconstructor
p1
(ctools
Root
p2
c__builtin__
object
p3
NtRp4
(dp5
S'head'
p6
g1
(ctools
Element
p7
g3
NtRp8
(dp9
S'docID'
p10
I1
sbsS'last'
p11
g8
sb.
ccopy_reg
_reconstructor
p1
(ctools
Root
p2
c__builtin__
object
p3
NtRp4
(dp5
S'head'
p6
g1
(ctools
Element
p7
g3
NtRp8
(dp9
S'docID'
p10
I1
sbsS'last'
p11
g8
sb.
ccopy_reg
_reconstructor
p1
(ctools
Root
p2
c__builtin__
object
p3
NtRp4
(dp5
S'head'
p6
g1
(ctools
Element
p7
g3
NtRp8
(dp9
S'docID'
p10
I1
sbsS'last'
p11
g8
sb.
